
ElektronickaKocka.elf:     file format elf32-littlearm

Sections:
Idx Name          Size      VMA       LMA       File off  Algn
  0 .isr_vector   0000013c  08000000  08000000  00010000  2**0
                  CONTENTS, ALLOC, LOAD, READONLY, DATA
  1 .text         00002f7c  0800013c  0800013c  0001013c  2**2
                  CONTENTS, ALLOC, LOAD, READONLY, CODE
  2 .rodata       00000684  080030b8  080030b8  000130b8  2**2
                  CONTENTS, ALLOC, LOAD, READONLY, DATA
  3 .ARM          00000008  0800373c  0800373c  0001373c  2**2
                  CONTENTS, ALLOC, LOAD, READONLY, DATA
  4 .init_array   00000004  08003744  08003744  00013744  2**2
                  CONTENTS, ALLOC, LOAD, DATA
  5 .fini_array   00000004  08003748  08003748  00013748  2**2
                  CONTENTS, ALLOC, LOAD, DATA
  6 .data         00000020  20000000  0800374c  00020000  2**2
                  CONTENTS, ALLOC, LOAD, DATA
  7 .bss          00000074  20000020  0800376c  00020020  2**3
                  ALLOC
  8 ._user_heap_stack 00000400  20000094  0800376c  00020094  2**0
                  ALLOC
  9 .ARM.attributes 00000029  00000000  00000000  00020020  2**0
                  CONTENTS, READONLY
 10 .debug_info   00009168  00000000  00000000  00020049  2**0
                  CONTENTS, READONLY, DEBUGGING
 11 .debug_abbrev 00001a19  00000000  00000000  000291b1  2**0
                  CONTENTS, READONLY, DEBUGGING
 12 .debug_aranges 00000c10  00000000  00000000  0002abd0  2**3
                  CONTENTS, READONLY, DEBUGGING
 13 .debug_ranges 00000ae8  00000000  00000000  0002b7e0  2**3
                  CONTENTS, READONLY, DEBUGGING
 14 .debug_line   000041a3  00000000  00000000  0002c2c8  2**0
                  CONTENTS, READONLY, DEBUGGING
 15 .debug_str    000036a1  00000000  00000000  0003046b  2**0
                  CONTENTS, READONLY, DEBUGGING
 16 .comment      0000007e  00000000  00000000  00033b0c  2**0
                  CONTENTS, READONLY
 17 .debug_frame  0000332c  00000000  00000000  00033b8c  2**2
                  CONTENTS, READONLY, DEBUGGING
 18 .stabstr      0000003f  00000000  00000000  00036eb8  2**0
                  CONTENTS, READONLY, DEBUGGING

Disassembly of section .text:

0800013c <__do_global_dtors_aux>:
 800013c:	b510      	push	{r4, lr}
 800013e:	4c05      	ldr	r4, [pc, #20]	; (8000154 <__do_global_dtors_aux+0x18>)
 8000140:	7823      	ldrb	r3, [r4, #0]
 8000142:	b933      	cbnz	r3, 8000152 <__do_global_dtors_aux+0x16>
 8000144:	4b04      	ldr	r3, [pc, #16]	; (8000158 <__do_global_dtors_aux+0x1c>)
 8000146:	b113      	cbz	r3, 800014e <__do_global_dtors_aux+0x12>
 8000148:	4804      	ldr	r0, [pc, #16]	; (800015c <__do_global_dtors_aux+0x20>)
 800014a:	f3af 8000 	nop.w
 800014e:	2301      	movs	r3, #1
 8000150:	7023      	strb	r3, [r4, #0]
 8000152:	bd10      	pop	{r4, pc}
 8000154:	20000020 	.word	0x20000020
 8000158:	00000000 	.word	0x00000000
 800015c:	080030a0 	.word	0x080030a0

08000160 <frame_dummy>:
 8000160:	b508      	push	{r3, lr}
 8000162:	4b03      	ldr	r3, [pc, #12]	; (8000170 <frame_dummy+0x10>)
 8000164:	b11b      	cbz	r3, 800016e <frame_dummy+0xe>
 8000166:	4903      	ldr	r1, [pc, #12]	; (8000174 <frame_dummy+0x14>)
 8000168:	4803      	ldr	r0, [pc, #12]	; (8000178 <frame_dummy+0x18>)
 800016a:	f3af 8000 	nop.w
 800016e:	bd08      	pop	{r3, pc}
 8000170:	00000000 	.word	0x00000000
 8000174:	20000024 	.word	0x20000024
 8000178:	080030a0 	.word	0x080030a0

0800017c <strlen>:
 800017c:	4603      	mov	r3, r0
 800017e:	f813 2b01 	ldrb.w	r2, [r3], #1
 8000182:	2a00      	cmp	r2, #0
 8000184:	d1fb      	bne.n	800017e <strlen+0x2>
 8000186:	1a18      	subs	r0, r3, r0
 8000188:	3801      	subs	r0, #1
 800018a:	4770      	bx	lr

0800018c <__aeabi_uldivmod>:
 800018c:	b953      	cbnz	r3, 80001a4 <__aeabi_uldivmod+0x18>
 800018e:	b94a      	cbnz	r2, 80001a4 <__aeabi_uldivmod+0x18>
 8000190:	2900      	cmp	r1, #0
 8000192:	bf08      	it	eq
 8000194:	2800      	cmpeq	r0, #0
 8000196:	bf1c      	itt	ne
 8000198:	f04f 31ff 	movne.w	r1, #4294967295
 800019c:	f04f 30ff 	movne.w	r0, #4294967295
 80001a0:	f000 b982 	b.w	80004a8 <__aeabi_idiv0>
 80001a4:	f1ad 0c08 	sub.w	ip, sp, #8
 80001a8:	e96d ce04 	strd	ip, lr, [sp, #-16]!
 80001ac:	f000 f806 	bl	80001bc <__udivmoddi4>
 80001b0:	f8dd e004 	ldr.w	lr, [sp, #4]
 80001b4:	e9dd 2302 	ldrd	r2, r3, [sp, #8]
 80001b8:	b004      	add	sp, #16
 80001ba:	4770      	bx	lr

080001bc <__udivmoddi4>:
 80001bc:	e92d 4ff0 	stmdb	sp!, {r4, r5, r6, r7, r8, r9, sl, fp, lr}
 80001c0:	468c      	mov	ip, r1
 80001c2:	460c      	mov	r4, r1
 80001c4:	4605      	mov	r5, r0
 80001c6:	9e09      	ldr	r6, [sp, #36]	; 0x24
 80001c8:	2b00      	cmp	r3, #0
 80001ca:	d14f      	bne.n	800026c <__udivmoddi4+0xb0>
 80001cc:	428a      	cmp	r2, r1
 80001ce:	4617      	mov	r7, r2
 80001d0:	d96b      	bls.n	80002aa <__udivmoddi4+0xee>
 80001d2:	fab2 fe82 	clz	lr, r2
 80001d6:	f1be 0f00 	cmp.w	lr, #0
 80001da:	d00b      	beq.n	80001f4 <__udivmoddi4+0x38>
 80001dc:	f1ce 0520 	rsb	r5, lr, #32
 80001e0:	fa20 f505 	lsr.w	r5, r0, r5
 80001e4:	fa01 f30e 	lsl.w	r3, r1, lr
 80001e8:	ea45 0c03 	orr.w	ip, r5, r3
 80001ec:	fa02 f70e 	lsl.w	r7, r2, lr
 80001f0:	fa00 f50e 	lsl.w	r5, r0, lr
 80001f4:	0c39      	lsrs	r1, r7, #16
 80001f6:	fbbc f0f1 	udiv	r0, ip, r1
 80001fa:	b2ba      	uxth	r2, r7
 80001fc:	fb01 c310 	mls	r3, r1, r0, ip
 8000200:	fb00 f802 	mul.w	r8, r0, r2
 8000204:	ea4f 4c15 	mov.w	ip, r5, lsr #16
 8000208:	ea4c 4403 	orr.w	r4, ip, r3, lsl #16
 800020c:	45a0      	cmp	r8, r4
 800020e:	d909      	bls.n	8000224 <__udivmoddi4+0x68>
 8000210:	19e4      	adds	r4, r4, r7
 8000212:	f100 33ff 	add.w	r3, r0, #4294967295
 8000216:	f080 8128 	bcs.w	800046a <__udivmoddi4+0x2ae>
 800021a:	45a0      	cmp	r8, r4
 800021c:	f240 8125 	bls.w	800046a <__udivmoddi4+0x2ae>
 8000220:	3802      	subs	r0, #2
 8000222:	443c      	add	r4, r7
 8000224:	ebc8 0404 	rsb	r4, r8, r4
 8000228:	fbb4 f3f1 	udiv	r3, r4, r1
 800022c:	fb01 4c13 	mls	ip, r1, r3, r4
 8000230:	fb03 f202 	mul.w	r2, r3, r2
 8000234:	b2ac      	uxth	r4, r5
 8000236:	ea44 410c 	orr.w	r1, r4, ip, lsl #16
 800023a:	428a      	cmp	r2, r1
 800023c:	d909      	bls.n	8000252 <__udivmoddi4+0x96>
 800023e:	19c9      	adds	r1, r1, r7
 8000240:	f103 34ff 	add.w	r4, r3, #4294967295
 8000244:	f080 810f 	bcs.w	8000466 <__udivmoddi4+0x2aa>
 8000248:	428a      	cmp	r2, r1
 800024a:	f240 810c 	bls.w	8000466 <__udivmoddi4+0x2aa>
 800024e:	3b02      	subs	r3, #2
 8000250:	4439      	add	r1, r7
 8000252:	1a8a      	subs	r2, r1, r2
 8000254:	ea43 4000 	orr.w	r0, r3, r0, lsl #16
 8000258:	2100      	movs	r1, #0
 800025a:	2e00      	cmp	r6, #0
 800025c:	d063      	beq.n	8000326 <__udivmoddi4+0x16a>
 800025e:	fa22 f20e 	lsr.w	r2, r2, lr
 8000262:	2300      	movs	r3, #0
 8000264:	e886 000c 	stmia.w	r6, {r2, r3}
 8000268:	e8bd 8ff0 	ldmia.w	sp!, {r4, r5, r6, r7, r8, r9, sl, fp, pc}
 800026c:	428b      	cmp	r3, r1
 800026e:	d907      	bls.n	8000280 <__udivmoddi4+0xc4>
 8000270:	2e00      	cmp	r6, #0
 8000272:	d056      	beq.n	8000322 <__udivmoddi4+0x166>
 8000274:	2100      	movs	r1, #0
 8000276:	e886 0011 	stmia.w	r6, {r0, r4}
 800027a:	4608      	mov	r0, r1
 800027c:	e8bd 8ff0 	ldmia.w	sp!, {r4, r5, r6, r7, r8, r9, sl, fp, pc}
 8000280:	fab3 f183 	clz	r1, r3
 8000284:	2900      	cmp	r1, #0
 8000286:	f040 8093 	bne.w	80003b0 <__udivmoddi4+0x1f4>
 800028a:	42a3      	cmp	r3, r4
 800028c:	d302      	bcc.n	8000294 <__udivmoddi4+0xd8>
 800028e:	4282      	cmp	r2, r0
 8000290:	f200 80fe 	bhi.w	8000490 <__udivmoddi4+0x2d4>
 8000294:	1a85      	subs	r5, r0, r2
 8000296:	eb64 0303 	sbc.w	r3, r4, r3
 800029a:	469c      	mov	ip, r3
 800029c:	2001      	movs	r0, #1
 800029e:	2e00      	cmp	r6, #0
 80002a0:	d041      	beq.n	8000326 <__udivmoddi4+0x16a>
 80002a2:	e886 1020 	stmia.w	r6, {r5, ip}
 80002a6:	e8bd 8ff0 	ldmia.w	sp!, {r4, r5, r6, r7, r8, r9, sl, fp, pc}
 80002aa:	b912      	cbnz	r2, 80002b2 <__udivmoddi4+0xf6>
 80002ac:	2701      	movs	r7, #1
 80002ae:	fbb7 f7f2 	udiv	r7, r7, r2
 80002b2:	fab7 fe87 	clz	lr, r7
 80002b6:	f1be 0f00 	cmp.w	lr, #0
 80002ba:	d136      	bne.n	800032a <__udivmoddi4+0x16e>
 80002bc:	1be4      	subs	r4, r4, r7
 80002be:	ea4f 4817 	mov.w	r8, r7, lsr #16
 80002c2:	fa1f f987 	uxth.w	r9, r7
 80002c6:	2101      	movs	r1, #1
 80002c8:	fbb4 f3f8 	udiv	r3, r4, r8
 80002cc:	fb08 4413 	mls	r4, r8, r3, r4
 80002d0:	fb09 f203 	mul.w	r2, r9, r3
 80002d4:	ea4f 4c15 	mov.w	ip, r5, lsr #16
 80002d8:	ea4c 4404 	orr.w	r4, ip, r4, lsl #16
 80002dc:	42a2      	cmp	r2, r4
 80002de:	d907      	bls.n	80002f0 <__udivmoddi4+0x134>
 80002e0:	19e4      	adds	r4, r4, r7
 80002e2:	f103 30ff 	add.w	r0, r3, #4294967295
 80002e6:	d202      	bcs.n	80002ee <__udivmoddi4+0x132>
 80002e8:	42a2      	cmp	r2, r4
 80002ea:	f200 80d3 	bhi.w	8000494 <__udivmoddi4+0x2d8>
 80002ee:	4603      	mov	r3, r0
 80002f0:	1aa4      	subs	r4, r4, r2
 80002f2:	fbb4 f0f8 	udiv	r0, r4, r8
 80002f6:	fb08 4810 	mls	r8, r8, r0, r4
 80002fa:	fb09 f900 	mul.w	r9, r9, r0
 80002fe:	b2ac      	uxth	r4, r5
 8000300:	ea44 4208 	orr.w	r2, r4, r8, lsl #16
 8000304:	4591      	cmp	r9, r2
 8000306:	d907      	bls.n	8000318 <__udivmoddi4+0x15c>
 8000308:	19d2      	adds	r2, r2, r7
 800030a:	f100 34ff 	add.w	r4, r0, #4294967295
 800030e:	d202      	bcs.n	8000316 <__udivmoddi4+0x15a>
 8000310:	4591      	cmp	r9, r2
 8000312:	f200 80ba 	bhi.w	800048a <__udivmoddi4+0x2ce>
 8000316:	4620      	mov	r0, r4
 8000318:	ebc9 0202 	rsb	r2, r9, r2
 800031c:	ea40 4003 	orr.w	r0, r0, r3, lsl #16
 8000320:	e79b      	b.n	800025a <__udivmoddi4+0x9e>
 8000322:	4631      	mov	r1, r6
 8000324:	4630      	mov	r0, r6
 8000326:	e8bd 8ff0 	ldmia.w	sp!, {r4, r5, r6, r7, r8, r9, sl, fp, pc}
 800032a:	fa07 f70e 	lsl.w	r7, r7, lr
 800032e:	f1ce 0c20 	rsb	ip, lr, #32
 8000332:	fa24 f30c 	lsr.w	r3, r4, ip
 8000336:	ea4f 4817 	mov.w	r8, r7, lsr #16
 800033a:	fbb3 faf8 	udiv	sl, r3, r8
 800033e:	fa1f f987 	uxth.w	r9, r7
 8000342:	fb08 351a 	mls	r5, r8, sl, r3
 8000346:	fa20 fc0c 	lsr.w	ip, r0, ip
 800034a:	fa04 f40e 	lsl.w	r4, r4, lr
 800034e:	fb0a fb09 	mul.w	fp, sl, r9
 8000352:	ea4c 0c04 	orr.w	ip, ip, r4
 8000356:	ea4f 421c 	mov.w	r2, ip, lsr #16
 800035a:	ea42 4305 	orr.w	r3, r2, r5, lsl #16
 800035e:	459b      	cmp	fp, r3
 8000360:	fa00 f50e 	lsl.w	r5, r0, lr
 8000364:	d90a      	bls.n	800037c <__udivmoddi4+0x1c0>
 8000366:	19db      	adds	r3, r3, r7
 8000368:	f10a 32ff 	add.w	r2, sl, #4294967295
 800036c:	f080 808b 	bcs.w	8000486 <__udivmoddi4+0x2ca>
 8000370:	459b      	cmp	fp, r3
 8000372:	f240 8088 	bls.w	8000486 <__udivmoddi4+0x2ca>
 8000376:	f1aa 0a02 	sub.w	sl, sl, #2
 800037a:	443b      	add	r3, r7
 800037c:	ebcb 0303 	rsb	r3, fp, r3
 8000380:	fbb3 f0f8 	udiv	r0, r3, r8
 8000384:	fb08 3310 	mls	r3, r8, r0, r3
 8000388:	fb00 f409 	mul.w	r4, r0, r9
 800038c:	fa1f fc8c 	uxth.w	ip, ip
 8000390:	ea4c 4303 	orr.w	r3, ip, r3, lsl #16
 8000394:	429c      	cmp	r4, r3
 8000396:	d907      	bls.n	80003a8 <__udivmoddi4+0x1ec>
 8000398:	19db      	adds	r3, r3, r7
 800039a:	f100 32ff 	add.w	r2, r0, #4294967295
 800039e:	d26e      	bcs.n	800047e <__udivmoddi4+0x2c2>
 80003a0:	429c      	cmp	r4, r3
 80003a2:	d96c      	bls.n	800047e <__udivmoddi4+0x2c2>
 80003a4:	3802      	subs	r0, #2
 80003a6:	443b      	add	r3, r7
 80003a8:	1b1c      	subs	r4, r3, r4
 80003aa:	ea40 410a 	orr.w	r1, r0, sl, lsl #16
 80003ae:	e78b      	b.n	80002c8 <__udivmoddi4+0x10c>
 80003b0:	f1c1 0e20 	rsb	lr, r1, #32
 80003b4:	408b      	lsls	r3, r1
 80003b6:	fa22 fc0e 	lsr.w	ip, r2, lr
 80003ba:	ea4c 0c03 	orr.w	ip, ip, r3
 80003be:	fa24 f70e 	lsr.w	r7, r4, lr
 80003c2:	ea4f 491c 	mov.w	r9, ip, lsr #16
 80003c6:	fbb7 faf9 	udiv	sl, r7, r9
 80003ca:	fa1f f38c 	uxth.w	r3, ip
 80003ce:	fb09 771a 	mls	r7, r9, sl, r7
 80003d2:	fa20 f80e 	lsr.w	r8, r0, lr
 80003d6:	408c      	lsls	r4, r1
 80003d8:	fb0a f503 	mul.w	r5, sl, r3
 80003dc:	ea48 0404 	orr.w	r4, r8, r4
 80003e0:	ea4f 4814 	mov.w	r8, r4, lsr #16
 80003e4:	ea48 4707 	orr.w	r7, r8, r7, lsl #16
 80003e8:	42bd      	cmp	r5, r7
 80003ea:	fa02 f201 	lsl.w	r2, r2, r1
 80003ee:	fa00 fb01 	lsl.w	fp, r0, r1
 80003f2:	d909      	bls.n	8000408 <__udivmoddi4+0x24c>
 80003f4:	eb17 070c 	adds.w	r7, r7, ip
 80003f8:	f10a 30ff 	add.w	r0, sl, #4294967295
 80003fc:	d241      	bcs.n	8000482 <__udivmoddi4+0x2c6>
 80003fe:	42bd      	cmp	r5, r7
 8000400:	d93f      	bls.n	8000482 <__udivmoddi4+0x2c6>
 8000402:	f1aa 0a02 	sub.w	sl, sl, #2
 8000406:	4467      	add	r7, ip
 8000408:	1b7f      	subs	r7, r7, r5
 800040a:	fbb7 f5f9 	udiv	r5, r7, r9
 800040e:	fb09 7715 	mls	r7, r9, r5, r7
 8000412:	fb05 f303 	mul.w	r3, r5, r3
 8000416:	b2a4      	uxth	r4, r4
 8000418:	ea44 4707 	orr.w	r7, r4, r7, lsl #16
 800041c:	42bb      	cmp	r3, r7
 800041e:	d908      	bls.n	8000432 <__udivmoddi4+0x276>
 8000420:	eb17 070c 	adds.w	r7, r7, ip
 8000424:	f105 30ff 	add.w	r0, r5, #4294967295
 8000428:	d227      	bcs.n	800047a <__udivmoddi4+0x2be>
 800042a:	42bb      	cmp	r3, r7
 800042c:	d925      	bls.n	800047a <__udivmoddi4+0x2be>
 800042e:	3d02      	subs	r5, #2
 8000430:	4467      	add	r7, ip
 8000432:	ea45 400a 	orr.w	r0, r5, sl, lsl #16
 8000436:	fba0 8902 	umull	r8, r9, r0, r2
 800043a:	1aff      	subs	r7, r7, r3
 800043c:	454f      	cmp	r7, r9
 800043e:	4645      	mov	r5, r8
 8000440:	464c      	mov	r4, r9
 8000442:	d314      	bcc.n	800046e <__udivmoddi4+0x2b2>
 8000444:	d029      	beq.n	800049a <__udivmoddi4+0x2de>
 8000446:	b366      	cbz	r6, 80004a2 <__udivmoddi4+0x2e6>
 8000448:	ebbb 0305 	subs.w	r3, fp, r5
 800044c:	eb67 0704 	sbc.w	r7, r7, r4
 8000450:	fa07 fe0e 	lsl.w	lr, r7, lr
 8000454:	40cb      	lsrs	r3, r1
 8000456:	40cf      	lsrs	r7, r1
 8000458:	ea4e 0303 	orr.w	r3, lr, r3
 800045c:	e886 0088 	stmia.w	r6, {r3, r7}
 8000460:	2100      	movs	r1, #0
 8000462:	e8bd 8ff0 	ldmia.w	sp!, {r4, r5, r6, r7, r8, r9, sl, fp, pc}
 8000466:	4623      	mov	r3, r4
 8000468:	e6f3      	b.n	8000252 <__udivmoddi4+0x96>
 800046a:	4618      	mov	r0, r3
 800046c:	e6da      	b.n	8000224 <__udivmoddi4+0x68>
 800046e:	ebb8 0502 	subs.w	r5, r8, r2
 8000472:	eb69 040c 	sbc.w	r4, r9, ip
 8000476:	3801      	subs	r0, #1
 8000478:	e7e5      	b.n	8000446 <__udivmoddi4+0x28a>
 800047a:	4605      	mov	r5, r0
 800047c:	e7d9      	b.n	8000432 <__udivmoddi4+0x276>
 800047e:	4610      	mov	r0, r2
 8000480:	e792      	b.n	80003a8 <__udivmoddi4+0x1ec>
 8000482:	4682      	mov	sl, r0
 8000484:	e7c0      	b.n	8000408 <__udivmoddi4+0x24c>
 8000486:	4692      	mov	sl, r2
 8000488:	e778      	b.n	800037c <__udivmoddi4+0x1c0>
 800048a:	3802      	subs	r0, #2
 800048c:	443a      	add	r2, r7
 800048e:	e743      	b.n	8000318 <__udivmoddi4+0x15c>
 8000490:	4608      	mov	r0, r1
 8000492:	e704      	b.n	800029e <__udivmoddi4+0xe2>
 8000494:	3b02      	subs	r3, #2
 8000496:	443c      	add	r4, r7
 8000498:	e72a      	b.n	80002f0 <__udivmoddi4+0x134>
 800049a:	45c3      	cmp	fp, r8
 800049c:	d3e7      	bcc.n	800046e <__udivmoddi4+0x2b2>
 800049e:	463c      	mov	r4, r7
 80004a0:	e7d1      	b.n	8000446 <__udivmoddi4+0x28a>
 80004a2:	4631      	mov	r1, r6
 80004a4:	e8bd 8ff0 	ldmia.w	sp!, {r4, r5, r6, r7, r8, r9, sl, fp, pc}

080004a8 <__aeabi_idiv0>:
 80004a8:	4770      	bx	lr
 80004aa:	bf00      	nop

080004ac <NVIC_Init>:
  * @param  NVIC_InitStruct: pointer to a NVIC_InitTypeDef structure that contains
  *         the configuration information for the specified NVIC peripheral.
  * @retval None
  */
void NVIC_Init(NVIC_InitTypeDef* NVIC_InitStruct)
{
 80004ac:	b480      	push	{r7}
 80004ae:	b085      	sub	sp, #20
 80004b0:	af00      	add	r7, sp, #0
 80004b2:	6078      	str	r0, [r7, #4]
  uint8_t tmppriority = 0x00, tmppre = 0x00, tmpsub = 0x0F;
 80004b4:	2300      	movs	r3, #0
 80004b6:	73fb      	strb	r3, [r7, #15]
 80004b8:	2300      	movs	r3, #0
 80004ba:	73bb      	strb	r3, [r7, #14]
 80004bc:	230f      	movs	r3, #15
 80004be:	737b      	strb	r3, [r7, #13]
  /* Check the parameters */
  assert_param(IS_FUNCTIONAL_STATE(NVIC_InitStruct->NVIC_IRQChannelCmd));
  assert_param(IS_NVIC_PREEMPTION_PRIORITY(NVIC_InitStruct->NVIC_IRQChannelPreemptionPriority));  
  assert_param(IS_NVIC_SUB_PRIORITY(NVIC_InitStruct->NVIC_IRQChannelSubPriority));
    
  if (NVIC_InitStruct->NVIC_IRQChannelCmd != DISABLE)
 80004c0:	687b      	ldr	r3, [r7, #4]
 80004c2:	78db      	ldrb	r3, [r3, #3]
 80004c4:	2b00      	cmp	r3, #0
 80004c6:	d038      	beq.n	800053a <NVIC_Init+0x8e>
  {
    /* Compute the Corresponding IRQ Priority --------------------------------*/    
    tmppriority = (0x700 - ((SCB->AIRCR) & (uint32_t)0x700))>> 0x08;
 80004c8:	4b26      	ldr	r3, [pc, #152]	; (8000564 <NVIC_Init+0xb8>)
 80004ca:	68db      	ldr	r3, [r3, #12]
 80004cc:	43db      	mvns	r3, r3
 80004ce:	f403 63e0 	and.w	r3, r3, #1792	; 0x700
 80004d2:	0a1b      	lsrs	r3, r3, #8
 80004d4:	73fb      	strb	r3, [r7, #15]
    tmppre = (0x4 - tmppriority);
 80004d6:	7bfb      	ldrb	r3, [r7, #15]
 80004d8:	f1c3 0304 	rsb	r3, r3, #4
 80004dc:	73bb      	strb	r3, [r7, #14]
    tmpsub = tmpsub >> tmppriority;
 80004de:	7b7a      	ldrb	r2, [r7, #13]
 80004e0:	7bfb      	ldrb	r3, [r7, #15]
 80004e2:	fa42 f303 	asr.w	r3, r2, r3
 80004e6:	737b      	strb	r3, [r7, #13]

    tmppriority = (uint32_t)NVIC_InitStruct->NVIC_IRQChannelPreemptionPriority << tmppre;
 80004e8:	687b      	ldr	r3, [r7, #4]
 80004ea:	785b      	ldrb	r3, [r3, #1]
 80004ec:	461a      	mov	r2, r3
 80004ee:	7bbb      	ldrb	r3, [r7, #14]
 80004f0:	fa02 f303 	lsl.w	r3, r2, r3
 80004f4:	73fb      	strb	r3, [r7, #15]
    tmppriority |=  (uint8_t)(NVIC_InitStruct->NVIC_IRQChannelSubPriority & tmpsub);
 80004f6:	687b      	ldr	r3, [r7, #4]
 80004f8:	789a      	ldrb	r2, [r3, #2]
 80004fa:	7b7b      	ldrb	r3, [r7, #13]
 80004fc:	4013      	ands	r3, r2
 80004fe:	b2da      	uxtb	r2, r3
 8000500:	7bfb      	ldrb	r3, [r7, #15]
 8000502:	4313      	orrs	r3, r2
 8000504:	73fb      	strb	r3, [r7, #15]
    tmppriority = tmppriority << 0x04;
 8000506:	7bfb      	ldrb	r3, [r7, #15]
 8000508:	011b      	lsls	r3, r3, #4
 800050a:	73fb      	strb	r3, [r7, #15]
        
    NVIC->IP[NVIC_InitStruct->NVIC_IRQChannel] = tmppriority;
 800050c:	4a16      	ldr	r2, [pc, #88]	; (8000568 <NVIC_Init+0xbc>)
 800050e:	687b      	ldr	r3, [r7, #4]
 8000510:	781b      	ldrb	r3, [r3, #0]
 8000512:	4413      	add	r3, r2
 8000514:	7bfa      	ldrb	r2, [r7, #15]
 8000516:	f883 2300 	strb.w	r2, [r3, #768]	; 0x300
    
    /* Enable the Selected IRQ Channels --------------------------------------*/
    NVIC->ISER[NVIC_InitStruct->NVIC_IRQChannel >> 0x05] =
 800051a:	4a13      	ldr	r2, [pc, #76]	; (8000568 <NVIC_Init+0xbc>)
 800051c:	687b      	ldr	r3, [r7, #4]
 800051e:	781b      	ldrb	r3, [r3, #0]
 8000520:	095b      	lsrs	r3, r3, #5
 8000522:	b2db      	uxtb	r3, r3
 8000524:	4618      	mov	r0, r3
      (uint32_t)0x01 << (NVIC_InitStruct->NVIC_IRQChannel & (uint8_t)0x1F);
 8000526:	687b      	ldr	r3, [r7, #4]
 8000528:	781b      	ldrb	r3, [r3, #0]
 800052a:	f003 031f 	and.w	r3, r3, #31
 800052e:	2101      	movs	r1, #1
 8000530:	fa01 f303 	lsl.w	r3, r1, r3
    tmppriority = tmppriority << 0x04;
        
    NVIC->IP[NVIC_InitStruct->NVIC_IRQChannel] = tmppriority;
    
    /* Enable the Selected IRQ Channels --------------------------------------*/
    NVIC->ISER[NVIC_InitStruct->NVIC_IRQChannel >> 0x05] =
 8000534:	f842 3020 	str.w	r3, [r2, r0, lsl #2]
  {
    /* Disable the Selected IRQ Channels -------------------------------------*/
    NVIC->ICER[NVIC_InitStruct->NVIC_IRQChannel >> 0x05] =
      (uint32_t)0x01 << (NVIC_InitStruct->NVIC_IRQChannel & (uint8_t)0x1F);
  }
}
 8000538:	e00f      	b.n	800055a <NVIC_Init+0xae>
      (uint32_t)0x01 << (NVIC_InitStruct->NVIC_IRQChannel & (uint8_t)0x1F);
  }
  else
  {
    /* Disable the Selected IRQ Channels -------------------------------------*/
    NVIC->ICER[NVIC_InitStruct->NVIC_IRQChannel >> 0x05] =
 800053a:	490b      	ldr	r1, [pc, #44]	; (8000568 <NVIC_Init+0xbc>)
 800053c:	687b      	ldr	r3, [r7, #4]
 800053e:	781b      	ldrb	r3, [r3, #0]
 8000540:	095b      	lsrs	r3, r3, #5
 8000542:	b2db      	uxtb	r3, r3
 8000544:	4618      	mov	r0, r3
      (uint32_t)0x01 << (NVIC_InitStruct->NVIC_IRQChannel & (uint8_t)0x1F);
 8000546:	687b      	ldr	r3, [r7, #4]
 8000548:	781b      	ldrb	r3, [r3, #0]
 800054a:	f003 031f 	and.w	r3, r3, #31
 800054e:	2201      	movs	r2, #1
 8000550:	409a      	lsls	r2, r3
      (uint32_t)0x01 << (NVIC_InitStruct->NVIC_IRQChannel & (uint8_t)0x1F);
  }
  else
  {
    /* Disable the Selected IRQ Channels -------------------------------------*/
    NVIC->ICER[NVIC_InitStruct->NVIC_IRQChannel >> 0x05] =
 8000552:	f100 0320 	add.w	r3, r0, #32
 8000556:	f841 2023 	str.w	r2, [r1, r3, lsl #2]
      (uint32_t)0x01 << (NVIC_InitStruct->NVIC_IRQChannel & (uint8_t)0x1F);
  }
}
 800055a:	bf00      	nop
 800055c:	3714      	adds	r7, #20
 800055e:	46bd      	mov	sp, r7
 8000560:	bc80      	pop	{r7}
 8000562:	4770      	bx	lr
 8000564:	e000ed00 	.word	0xe000ed00
 8000568:	e000e100 	.word	0xe000e100

0800056c <DMA_DeInit>:
  * @param  DMAy_Channelx: where y can be 1 or 2 to select the DMA and x can be 
  *         1 to 7 for DMA1 and 1 to 5 for DMA2 to select the DMA Channel.
  * @retval None
  */
void DMA_DeInit(DMA_Channel_TypeDef* DMAy_Channelx)
{
 800056c:	b480      	push	{r7}
 800056e:	b083      	sub	sp, #12
 8000570:	af00      	add	r7, sp, #0
 8000572:	6078      	str	r0, [r7, #4]
  /* Check the parameters */
  assert_param(IS_DMA_ALL_PERIPH(DMAy_Channelx));

  /* Disable the selected DMAy Channelx */
  DMAy_Channelx->CCR &= (uint16_t)(~DMA_CCR1_EN);
 8000574:	687b      	ldr	r3, [r7, #4]
 8000576:	681a      	ldr	r2, [r3, #0]
 8000578:	f64f 73fe 	movw	r3, #65534	; 0xfffe
 800057c:	4013      	ands	r3, r2
 800057e:	687a      	ldr	r2, [r7, #4]
 8000580:	6013      	str	r3, [r2, #0]

  /* Reset DMAy Channelx control register */
  DMAy_Channelx->CCR  = 0;
 8000582:	687b      	ldr	r3, [r7, #4]
 8000584:	2200      	movs	r2, #0
 8000586:	601a      	str	r2, [r3, #0]
  
  /* Reset DMAy Channelx remaining bytes register */
  DMAy_Channelx->CNDTR = 0;
 8000588:	687b      	ldr	r3, [r7, #4]
 800058a:	2200      	movs	r2, #0
 800058c:	605a      	str	r2, [r3, #4]
  
  /* Reset DMAy Channelx peripheral address register */
  DMAy_Channelx->CPAR  = 0;
 800058e:	687b      	ldr	r3, [r7, #4]
 8000590:	2200      	movs	r2, #0
 8000592:	609a      	str	r2, [r3, #8]
  
  /* Reset DMAy Channelx memory address register */
  DMAy_Channelx->CMAR = 0;
 8000594:	687b      	ldr	r3, [r7, #4]
 8000596:	2200      	movs	r2, #0
 8000598:	60da      	str	r2, [r3, #12]
  
  if (DMAy_Channelx == DMA1_Channel1)
 800059a:	687b      	ldr	r3, [r7, #4]
 800059c:	4a43      	ldr	r2, [pc, #268]	; (80006ac <DMA_DeInit+0x140>)
 800059e:	4293      	cmp	r3, r2
 80005a0:	d106      	bne.n	80005b0 <DMA_DeInit+0x44>
  {
    /* Reset interrupt pending bits for DMA1 Channel1 */
    DMA1->IFCR |= DMA1_CHANNEL1_IT_MASK;
 80005a2:	4a43      	ldr	r2, [pc, #268]	; (80006b0 <DMA_DeInit+0x144>)
 80005a4:	4b42      	ldr	r3, [pc, #264]	; (80006b0 <DMA_DeInit+0x144>)
 80005a6:	685b      	ldr	r3, [r3, #4]
 80005a8:	f043 030f 	orr.w	r3, r3, #15
 80005ac:	6053      	str	r3, [r2, #4]
    {
      /* Reset interrupt pending bits for DMA2 Channel5 */
      DMA2->IFCR |= DMA2_CHANNEL5_IT_MASK;
    }
  }
}
 80005ae:	e077      	b.n	80006a0 <DMA_DeInit+0x134>
  if (DMAy_Channelx == DMA1_Channel1)
  {
    /* Reset interrupt pending bits for DMA1 Channel1 */
    DMA1->IFCR |= DMA1_CHANNEL1_IT_MASK;
  }
  else if (DMAy_Channelx == DMA1_Channel2)
 80005b0:	687b      	ldr	r3, [r7, #4]
 80005b2:	4a40      	ldr	r2, [pc, #256]	; (80006b4 <DMA_DeInit+0x148>)
 80005b4:	4293      	cmp	r3, r2
 80005b6:	d106      	bne.n	80005c6 <DMA_DeInit+0x5a>
  {
    /* Reset interrupt pending bits for DMA1 Channel2 */
    DMA1->IFCR |= DMA1_CHANNEL2_IT_MASK;
 80005b8:	4a3d      	ldr	r2, [pc, #244]	; (80006b0 <DMA_DeInit+0x144>)
 80005ba:	4b3d      	ldr	r3, [pc, #244]	; (80006b0 <DMA_DeInit+0x144>)
 80005bc:	685b      	ldr	r3, [r3, #4]
 80005be:	f043 03f0 	orr.w	r3, r3, #240	; 0xf0
 80005c2:	6053      	str	r3, [r2, #4]
    {
      /* Reset interrupt pending bits for DMA2 Channel5 */
      DMA2->IFCR |= DMA2_CHANNEL5_IT_MASK;
    }
  }
}
 80005c4:	e06c      	b.n	80006a0 <DMA_DeInit+0x134>
  else if (DMAy_Channelx == DMA1_Channel2)
  {
    /* Reset interrupt pending bits for DMA1 Channel2 */
    DMA1->IFCR |= DMA1_CHANNEL2_IT_MASK;
  }
  else if (DMAy_Channelx == DMA1_Channel3)
 80005c6:	687b      	ldr	r3, [r7, #4]
 80005c8:	4a3b      	ldr	r2, [pc, #236]	; (80006b8 <DMA_DeInit+0x14c>)
 80005ca:	4293      	cmp	r3, r2
 80005cc:	d106      	bne.n	80005dc <DMA_DeInit+0x70>
  {
    /* Reset interrupt pending bits for DMA1 Channel3 */
    DMA1->IFCR |= DMA1_CHANNEL3_IT_MASK;
 80005ce:	4a38      	ldr	r2, [pc, #224]	; (80006b0 <DMA_DeInit+0x144>)
 80005d0:	4b37      	ldr	r3, [pc, #220]	; (80006b0 <DMA_DeInit+0x144>)
 80005d2:	685b      	ldr	r3, [r3, #4]
 80005d4:	f443 6370 	orr.w	r3, r3, #3840	; 0xf00
 80005d8:	6053      	str	r3, [r2, #4]
    {
      /* Reset interrupt pending bits for DMA2 Channel5 */
      DMA2->IFCR |= DMA2_CHANNEL5_IT_MASK;
    }
  }
}
 80005da:	e061      	b.n	80006a0 <DMA_DeInit+0x134>
  else if (DMAy_Channelx == DMA1_Channel3)
  {
    /* Reset interrupt pending bits for DMA1 Channel3 */
    DMA1->IFCR |= DMA1_CHANNEL3_IT_MASK;
  }
  else if (DMAy_Channelx == DMA1_Channel4)
 80005dc:	687b      	ldr	r3, [r7, #4]
 80005de:	4a37      	ldr	r2, [pc, #220]	; (80006bc <DMA_DeInit+0x150>)
 80005e0:	4293      	cmp	r3, r2
 80005e2:	d106      	bne.n	80005f2 <DMA_DeInit+0x86>
  {
    /* Reset interrupt pending bits for DMA1 Channel4 */
    DMA1->IFCR |= DMA1_CHANNEL4_IT_MASK;
 80005e4:	4a32      	ldr	r2, [pc, #200]	; (80006b0 <DMA_DeInit+0x144>)
 80005e6:	4b32      	ldr	r3, [pc, #200]	; (80006b0 <DMA_DeInit+0x144>)
 80005e8:	685b      	ldr	r3, [r3, #4]
 80005ea:	f443 4370 	orr.w	r3, r3, #61440	; 0xf000
 80005ee:	6053      	str	r3, [r2, #4]
    {
      /* Reset interrupt pending bits for DMA2 Channel5 */
      DMA2->IFCR |= DMA2_CHANNEL5_IT_MASK;
    }
  }
}
 80005f0:	e056      	b.n	80006a0 <DMA_DeInit+0x134>
  else if (DMAy_Channelx == DMA1_Channel4)
  {
    /* Reset interrupt pending bits for DMA1 Channel4 */
    DMA1->IFCR |= DMA1_CHANNEL4_IT_MASK;
  }
  else if (DMAy_Channelx == DMA1_Channel5)
 80005f2:	687b      	ldr	r3, [r7, #4]
 80005f4:	4a32      	ldr	r2, [pc, #200]	; (80006c0 <DMA_DeInit+0x154>)
 80005f6:	4293      	cmp	r3, r2
 80005f8:	d106      	bne.n	8000608 <DMA_DeInit+0x9c>
  {
    /* Reset interrupt pending bits for DMA1 Channel5 */
    DMA1->IFCR |= DMA1_CHANNEL5_IT_MASK;
 80005fa:	4a2d      	ldr	r2, [pc, #180]	; (80006b0 <DMA_DeInit+0x144>)
 80005fc:	4b2c      	ldr	r3, [pc, #176]	; (80006b0 <DMA_DeInit+0x144>)
 80005fe:	685b      	ldr	r3, [r3, #4]
 8000600:	f443 2370 	orr.w	r3, r3, #983040	; 0xf0000
 8000604:	6053      	str	r3, [r2, #4]
    {
      /* Reset interrupt pending bits for DMA2 Channel5 */
      DMA2->IFCR |= DMA2_CHANNEL5_IT_MASK;
    }
  }
}
 8000606:	e04b      	b.n	80006a0 <DMA_DeInit+0x134>
  else if (DMAy_Channelx == DMA1_Channel5)
  {
    /* Reset interrupt pending bits for DMA1 Channel5 */
    DMA1->IFCR |= DMA1_CHANNEL5_IT_MASK;
  }
  else if (DMAy_Channelx == DMA1_Channel6)
 8000608:	687b      	ldr	r3, [r7, #4]
 800060a:	4a2e      	ldr	r2, [pc, #184]	; (80006c4 <DMA_DeInit+0x158>)
 800060c:	4293      	cmp	r3, r2
 800060e:	d106      	bne.n	800061e <DMA_DeInit+0xb2>
  {
    /* Reset interrupt pending bits for DMA1 Channel6 */
    DMA1->IFCR |= DMA1_CHANNEL6_IT_MASK;
 8000610:	4a27      	ldr	r2, [pc, #156]	; (80006b0 <DMA_DeInit+0x144>)
 8000612:	4b27      	ldr	r3, [pc, #156]	; (80006b0 <DMA_DeInit+0x144>)
 8000614:	685b      	ldr	r3, [r3, #4]
 8000616:	f443 0370 	orr.w	r3, r3, #15728640	; 0xf00000
 800061a:	6053      	str	r3, [r2, #4]
    {
      /* Reset interrupt pending bits for DMA2 Channel5 */
      DMA2->IFCR |= DMA2_CHANNEL5_IT_MASK;
    }
  }
}
 800061c:	e040      	b.n	80006a0 <DMA_DeInit+0x134>
  else if (DMAy_Channelx == DMA1_Channel6)
  {
    /* Reset interrupt pending bits for DMA1 Channel6 */
    DMA1->IFCR |= DMA1_CHANNEL6_IT_MASK;
  }
  else if (DMAy_Channelx == DMA1_Channel7)
 800061e:	687b      	ldr	r3, [r7, #4]
 8000620:	4a29      	ldr	r2, [pc, #164]	; (80006c8 <DMA_DeInit+0x15c>)
 8000622:	4293      	cmp	r3, r2
 8000624:	d106      	bne.n	8000634 <DMA_DeInit+0xc8>
  {
    /* Reset interrupt pending bits for DMA1 Channel7 */
    DMA1->IFCR |= DMA1_CHANNEL7_IT_MASK;
 8000626:	4a22      	ldr	r2, [pc, #136]	; (80006b0 <DMA_DeInit+0x144>)
 8000628:	4b21      	ldr	r3, [pc, #132]	; (80006b0 <DMA_DeInit+0x144>)
 800062a:	685b      	ldr	r3, [r3, #4]
 800062c:	f043 6370 	orr.w	r3, r3, #251658240	; 0xf000000
 8000630:	6053      	str	r3, [r2, #4]
    {
      /* Reset interrupt pending bits for DMA2 Channel5 */
      DMA2->IFCR |= DMA2_CHANNEL5_IT_MASK;
    }
  }
}
 8000632:	e035      	b.n	80006a0 <DMA_DeInit+0x134>
  else if (DMAy_Channelx == DMA1_Channel7)
  {
    /* Reset interrupt pending bits for DMA1 Channel7 */
    DMA1->IFCR |= DMA1_CHANNEL7_IT_MASK;
  }
  else if (DMAy_Channelx == DMA2_Channel1)
 8000634:	687b      	ldr	r3, [r7, #4]
 8000636:	4a25      	ldr	r2, [pc, #148]	; (80006cc <DMA_DeInit+0x160>)
 8000638:	4293      	cmp	r3, r2
 800063a:	d106      	bne.n	800064a <DMA_DeInit+0xde>
  {
    /* Reset interrupt pending bits for DMA2 Channel1 */
    DMA2->IFCR |= DMA2_CHANNEL1_IT_MASK;
 800063c:	4a24      	ldr	r2, [pc, #144]	; (80006d0 <DMA_DeInit+0x164>)
 800063e:	4b24      	ldr	r3, [pc, #144]	; (80006d0 <DMA_DeInit+0x164>)
 8000640:	685b      	ldr	r3, [r3, #4]
 8000642:	f043 030f 	orr.w	r3, r3, #15
 8000646:	6053      	str	r3, [r2, #4]
    {
      /* Reset interrupt pending bits for DMA2 Channel5 */
      DMA2->IFCR |= DMA2_CHANNEL5_IT_MASK;
    }
  }
}
 8000648:	e02a      	b.n	80006a0 <DMA_DeInit+0x134>
  else if (DMAy_Channelx == DMA2_Channel1)
  {
    /* Reset interrupt pending bits for DMA2 Channel1 */
    DMA2->IFCR |= DMA2_CHANNEL1_IT_MASK;
  }
  else if (DMAy_Channelx == DMA2_Channel2)
 800064a:	687b      	ldr	r3, [r7, #4]
 800064c:	4a21      	ldr	r2, [pc, #132]	; (80006d4 <DMA_DeInit+0x168>)
 800064e:	4293      	cmp	r3, r2
 8000650:	d106      	bne.n	8000660 <DMA_DeInit+0xf4>
  {
    /* Reset interrupt pending bits for DMA2 Channel2 */
    DMA2->IFCR |= DMA2_CHANNEL2_IT_MASK;
 8000652:	4a1f      	ldr	r2, [pc, #124]	; (80006d0 <DMA_DeInit+0x164>)
 8000654:	4b1e      	ldr	r3, [pc, #120]	; (80006d0 <DMA_DeInit+0x164>)
 8000656:	685b      	ldr	r3, [r3, #4]
 8000658:	f043 03f0 	orr.w	r3, r3, #240	; 0xf0
 800065c:	6053      	str	r3, [r2, #4]
    {
      /* Reset interrupt pending bits for DMA2 Channel5 */
      DMA2->IFCR |= DMA2_CHANNEL5_IT_MASK;
    }
  }
}
 800065e:	e01f      	b.n	80006a0 <DMA_DeInit+0x134>
  else if (DMAy_Channelx == DMA2_Channel2)
  {
    /* Reset interrupt pending bits for DMA2 Channel2 */
    DMA2->IFCR |= DMA2_CHANNEL2_IT_MASK;
  }
  else if (DMAy_Channelx == DMA2_Channel3)
 8000660:	687b      	ldr	r3, [r7, #4]
 8000662:	4a1d      	ldr	r2, [pc, #116]	; (80006d8 <DMA_DeInit+0x16c>)
 8000664:	4293      	cmp	r3, r2
 8000666:	d106      	bne.n	8000676 <DMA_DeInit+0x10a>
  {
    /* Reset interrupt pending bits for DMA2 Channel3 */
    DMA2->IFCR |= DMA2_CHANNEL3_IT_MASK;
 8000668:	4a19      	ldr	r2, [pc, #100]	; (80006d0 <DMA_DeInit+0x164>)
 800066a:	4b19      	ldr	r3, [pc, #100]	; (80006d0 <DMA_DeInit+0x164>)
 800066c:	685b      	ldr	r3, [r3, #4]
 800066e:	f443 6370 	orr.w	r3, r3, #3840	; 0xf00
 8000672:	6053      	str	r3, [r2, #4]
    {
      /* Reset interrupt pending bits for DMA2 Channel5 */
      DMA2->IFCR |= DMA2_CHANNEL5_IT_MASK;
    }
  }
}
 8000674:	e014      	b.n	80006a0 <DMA_DeInit+0x134>
  else if (DMAy_Channelx == DMA2_Channel3)
  {
    /* Reset interrupt pending bits for DMA2 Channel3 */
    DMA2->IFCR |= DMA2_CHANNEL3_IT_MASK;
  }
  else if (DMAy_Channelx == DMA2_Channel4)
 8000676:	687b      	ldr	r3, [r7, #4]
 8000678:	4a18      	ldr	r2, [pc, #96]	; (80006dc <DMA_DeInit+0x170>)
 800067a:	4293      	cmp	r3, r2
 800067c:	d106      	bne.n	800068c <DMA_DeInit+0x120>
  {
    /* Reset interrupt pending bits for DMA2 Channel4 */
    DMA2->IFCR |= DMA2_CHANNEL4_IT_MASK;
 800067e:	4a14      	ldr	r2, [pc, #80]	; (80006d0 <DMA_DeInit+0x164>)
 8000680:	4b13      	ldr	r3, [pc, #76]	; (80006d0 <DMA_DeInit+0x164>)
 8000682:	685b      	ldr	r3, [r3, #4]
 8000684:	f443 4370 	orr.w	r3, r3, #61440	; 0xf000
 8000688:	6053      	str	r3, [r2, #4]
    {
      /* Reset interrupt pending bits for DMA2 Channel5 */
      DMA2->IFCR |= DMA2_CHANNEL5_IT_MASK;
    }
  }
}
 800068a:	e009      	b.n	80006a0 <DMA_DeInit+0x134>
    /* Reset interrupt pending bits for DMA2 Channel4 */
    DMA2->IFCR |= DMA2_CHANNEL4_IT_MASK;
  }
  else
  { 
    if (DMAy_Channelx == DMA2_Channel5)
 800068c:	687b      	ldr	r3, [r7, #4]
 800068e:	4a14      	ldr	r2, [pc, #80]	; (80006e0 <DMA_DeInit+0x174>)
 8000690:	4293      	cmp	r3, r2
 8000692:	d105      	bne.n	80006a0 <DMA_DeInit+0x134>
    {
      /* Reset interrupt pending bits for DMA2 Channel5 */
      DMA2->IFCR |= DMA2_CHANNEL5_IT_MASK;
 8000694:	4a0e      	ldr	r2, [pc, #56]	; (80006d0 <DMA_DeInit+0x164>)
 8000696:	4b0e      	ldr	r3, [pc, #56]	; (80006d0 <DMA_DeInit+0x164>)
 8000698:	685b      	ldr	r3, [r3, #4]
 800069a:	f443 2370 	orr.w	r3, r3, #983040	; 0xf0000
 800069e:	6053      	str	r3, [r2, #4]
    }
  }
}
 80006a0:	bf00      	nop
 80006a2:	370c      	adds	r7, #12
 80006a4:	46bd      	mov	sp, r7
 80006a6:	bc80      	pop	{r7}
 80006a8:	4770      	bx	lr
 80006aa:	bf00      	nop
 80006ac:	40026008 	.word	0x40026008
 80006b0:	40026000 	.word	0x40026000
 80006b4:	4002601c 	.word	0x4002601c
 80006b8:	40026030 	.word	0x40026030
 80006bc:	40026044 	.word	0x40026044
 80006c0:	40026058 	.word	0x40026058
 80006c4:	4002606c 	.word	0x4002606c
 80006c8:	40026080 	.word	0x40026080
 80006cc:	40026408 	.word	0x40026408
 80006d0:	40026400 	.word	0x40026400
 80006d4:	4002641c 	.word	0x4002641c
 80006d8:	40026430 	.word	0x40026430
 80006dc:	40026444 	.word	0x40026444
 80006e0:	40026458 	.word	0x40026458

080006e4 <DMA_Init>:
  * @param  DMA_InitStruct: pointer to a DMA_InitTypeDef structure that
  *         contains the configuration information for the specified DMA Channel.
  * @retval None
  */
void DMA_Init(DMA_Channel_TypeDef* DMAy_Channelx, DMA_InitTypeDef* DMA_InitStruct)
{
 80006e4:	b480      	push	{r7}
 80006e6:	b085      	sub	sp, #20
 80006e8:	af00      	add	r7, sp, #0
 80006ea:	6078      	str	r0, [r7, #4]
 80006ec:	6039      	str	r1, [r7, #0]
  uint32_t tmpreg = 0;
 80006ee:	2300      	movs	r3, #0
 80006f0:	60fb      	str	r3, [r7, #12]
  assert_param(IS_DMA_PRIORITY(DMA_InitStruct->DMA_Priority));
  assert_param(IS_DMA_M2M_STATE(DMA_InitStruct->DMA_M2M));

/*--------------------------- DMAy Channelx CCR Configuration -----------------*/
  /* Get the DMAy_Channelx CCR value */
  tmpreg = DMAy_Channelx->CCR;
 80006f2:	687b      	ldr	r3, [r7, #4]
 80006f4:	681b      	ldr	r3, [r3, #0]
 80006f6:	60fb      	str	r3, [r7, #12]
  /* Clear MEM2MEM, PL, MSIZE, PSIZE, MINC, PINC, CIRC and DIR bits */
  tmpreg &= CCR_CLEAR_MASK;
 80006f8:	68fb      	ldr	r3, [r7, #12]
 80006fa:	f423 43ff 	bic.w	r3, r3, #32640	; 0x7f80
 80006fe:	f023 0370 	bic.w	r3, r3, #112	; 0x70
 8000702:	60fb      	str	r3, [r7, #12]
  /* Set MINC bit according to DMA_MemoryInc value */
  /* Set PSIZE bits according to DMA_PeripheralDataSize value */
  /* Set MSIZE bits according to DMA_MemoryDataSize value */
  /* Set PL bits according to DMA_Priority value */
  /* Set the MEM2MEM bit according to DMA_M2M value */
  tmpreg |= DMA_InitStruct->DMA_DIR | DMA_InitStruct->DMA_Mode |
 8000704:	683b      	ldr	r3, [r7, #0]
 8000706:	689a      	ldr	r2, [r3, #8]
 8000708:	683b      	ldr	r3, [r7, #0]
 800070a:	6a1b      	ldr	r3, [r3, #32]
 800070c:	431a      	orrs	r2, r3
            DMA_InitStruct->DMA_PeripheralInc | DMA_InitStruct->DMA_MemoryInc |
 800070e:	683b      	ldr	r3, [r7, #0]
 8000710:	691b      	ldr	r3, [r3, #16]
  /* Set MINC bit according to DMA_MemoryInc value */
  /* Set PSIZE bits according to DMA_PeripheralDataSize value */
  /* Set MSIZE bits according to DMA_MemoryDataSize value */
  /* Set PL bits according to DMA_Priority value */
  /* Set the MEM2MEM bit according to DMA_M2M value */
  tmpreg |= DMA_InitStruct->DMA_DIR | DMA_InitStruct->DMA_Mode |
 8000712:	431a      	orrs	r2, r3
            DMA_InitStruct->DMA_PeripheralInc | DMA_InitStruct->DMA_MemoryInc |
 8000714:	683b      	ldr	r3, [r7, #0]
 8000716:	695b      	ldr	r3, [r3, #20]
 8000718:	431a      	orrs	r2, r3
            DMA_InitStruct->DMA_PeripheralDataSize | DMA_InitStruct->DMA_MemoryDataSize |
 800071a:	683b      	ldr	r3, [r7, #0]
 800071c:	699b      	ldr	r3, [r3, #24]
  /* Set PSIZE bits according to DMA_PeripheralDataSize value */
  /* Set MSIZE bits according to DMA_MemoryDataSize value */
  /* Set PL bits according to DMA_Priority value */
  /* Set the MEM2MEM bit according to DMA_M2M value */
  tmpreg |= DMA_InitStruct->DMA_DIR | DMA_InitStruct->DMA_Mode |
            DMA_InitStruct->DMA_PeripheralInc | DMA_InitStruct->DMA_MemoryInc |
 800071e:	431a      	orrs	r2, r3
            DMA_InitStruct->DMA_PeripheralDataSize | DMA_InitStruct->DMA_MemoryDataSize |
 8000720:	683b      	ldr	r3, [r7, #0]
 8000722:	69db      	ldr	r3, [r3, #28]
 8000724:	431a      	orrs	r2, r3
            DMA_InitStruct->DMA_Priority | DMA_InitStruct->DMA_M2M;
 8000726:	683b      	ldr	r3, [r7, #0]
 8000728:	6a5b      	ldr	r3, [r3, #36]	; 0x24
  /* Set MSIZE bits according to DMA_MemoryDataSize value */
  /* Set PL bits according to DMA_Priority value */
  /* Set the MEM2MEM bit according to DMA_M2M value */
  tmpreg |= DMA_InitStruct->DMA_DIR | DMA_InitStruct->DMA_Mode |
            DMA_InitStruct->DMA_PeripheralInc | DMA_InitStruct->DMA_MemoryInc |
            DMA_InitStruct->DMA_PeripheralDataSize | DMA_InitStruct->DMA_MemoryDataSize |
 800072a:	431a      	orrs	r2, r3
            DMA_InitStruct->DMA_Priority | DMA_InitStruct->DMA_M2M;
 800072c:	683b      	ldr	r3, [r7, #0]
 800072e:	6a9b      	ldr	r3, [r3, #40]	; 0x28
 8000730:	4313      	orrs	r3, r2
  /* Set MINC bit according to DMA_MemoryInc value */
  /* Set PSIZE bits according to DMA_PeripheralDataSize value */
  /* Set MSIZE bits according to DMA_MemoryDataSize value */
  /* Set PL bits according to DMA_Priority value */
  /* Set the MEM2MEM bit according to DMA_M2M value */
  tmpreg |= DMA_InitStruct->DMA_DIR | DMA_InitStruct->DMA_Mode |
 8000732:	68fa      	ldr	r2, [r7, #12]
 8000734:	4313      	orrs	r3, r2
 8000736:	60fb      	str	r3, [r7, #12]
            DMA_InitStruct->DMA_PeripheralInc | DMA_InitStruct->DMA_MemoryInc |
            DMA_InitStruct->DMA_PeripheralDataSize | DMA_InitStruct->DMA_MemoryDataSize |
            DMA_InitStruct->DMA_Priority | DMA_InitStruct->DMA_M2M;

  /* Write to DMAy Channelx CCR */
  DMAy_Channelx->CCR = tmpreg;
 8000738:	687b      	ldr	r3, [r7, #4]
 800073a:	68fa      	ldr	r2, [r7, #12]
 800073c:	601a      	str	r2, [r3, #0]

/*--------------------------- DMAy Channelx CNDTR Configuration ---------------*/
  /* Write to DMAy Channelx CNDTR */
  DMAy_Channelx->CNDTR = DMA_InitStruct->DMA_BufferSize;
 800073e:	683b      	ldr	r3, [r7, #0]
 8000740:	68da      	ldr	r2, [r3, #12]
 8000742:	687b      	ldr	r3, [r7, #4]
 8000744:	605a      	str	r2, [r3, #4]

/*--------------------------- DMAy Channelx CPAR Configuration ----------------*/
  /* Write to DMAy Channelx CPAR */
  DMAy_Channelx->CPAR = DMA_InitStruct->DMA_PeripheralBaseAddr;
 8000746:	683b      	ldr	r3, [r7, #0]
 8000748:	681a      	ldr	r2, [r3, #0]
 800074a:	687b      	ldr	r3, [r7, #4]
 800074c:	609a      	str	r2, [r3, #8]

/*--------------------------- DMAy Channelx CMAR Configuration ----------------*/
  /* Write to DMAy Channelx CMAR */
  DMAy_Channelx->CMAR = DMA_InitStruct->DMA_MemoryBaseAddr;
 800074e:	683b      	ldr	r3, [r7, #0]
 8000750:	685a      	ldr	r2, [r3, #4]
 8000752:	687b      	ldr	r3, [r7, #4]
 8000754:	60da      	str	r2, [r3, #12]
}
 8000756:	bf00      	nop
 8000758:	3714      	adds	r7, #20
 800075a:	46bd      	mov	sp, r7
 800075c:	bc80      	pop	{r7}
 800075e:	4770      	bx	lr

08000760 <DMA_Cmd>:
  * @param  NewState: new state of the DMAy Channelx. 
  *         This parameter can be: ENABLE or DISABLE.
  * @retval None
  */
void DMA_Cmd(DMA_Channel_TypeDef* DMAy_Channelx, FunctionalState NewState)
{
 8000760:	b480      	push	{r7}
 8000762:	b083      	sub	sp, #12
 8000764:	af00      	add	r7, sp, #0
 8000766:	6078      	str	r0, [r7, #4]
 8000768:	460b      	mov	r3, r1
 800076a:	70fb      	strb	r3, [r7, #3]
  /* Check the parameters */
  assert_param(IS_DMA_ALL_PERIPH(DMAy_Channelx));
  assert_param(IS_FUNCTIONAL_STATE(NewState));

  if (NewState != DISABLE)
 800076c:	78fb      	ldrb	r3, [r7, #3]
 800076e:	2b00      	cmp	r3, #0
 8000770:	d006      	beq.n	8000780 <DMA_Cmd+0x20>
  {
    /* Enable the selected DMAy Channelx */
    DMAy_Channelx->CCR |= DMA_CCR1_EN;
 8000772:	687b      	ldr	r3, [r7, #4]
 8000774:	681b      	ldr	r3, [r3, #0]
 8000776:	f043 0201 	orr.w	r2, r3, #1
 800077a:	687b      	ldr	r3, [r7, #4]
 800077c:	601a      	str	r2, [r3, #0]
  else
  {
    /* Disable the selected DMAy Channelx */
    DMAy_Channelx->CCR &= (uint16_t)(~DMA_CCR1_EN);
  }
}
 800077e:	e006      	b.n	800078e <DMA_Cmd+0x2e>
    DMAy_Channelx->CCR |= DMA_CCR1_EN;
  }
  else
  {
    /* Disable the selected DMAy Channelx */
    DMAy_Channelx->CCR &= (uint16_t)(~DMA_CCR1_EN);
 8000780:	687b      	ldr	r3, [r7, #4]
 8000782:	681a      	ldr	r2, [r3, #0]
 8000784:	f64f 73fe 	movw	r3, #65534	; 0xfffe
 8000788:	4013      	ands	r3, r2
 800078a:	687a      	ldr	r2, [r7, #4]
 800078c:	6013      	str	r3, [r2, #0]
  }
}
 800078e:	bf00      	nop
 8000790:	370c      	adds	r7, #12
 8000792:	46bd      	mov	sp, r7
 8000794:	bc80      	pop	{r7}
 8000796:	4770      	bx	lr

08000798 <DMA_SetCurrDataCounter>:
  *         transfer.
  * @note   This function can only be used when the DMAy_Channelx is disabled.
  * @retval None.
  */
void DMA_SetCurrDataCounter(DMA_Channel_TypeDef* DMAy_Channelx, uint16_t DataNumber)
{
 8000798:	b480      	push	{r7}
 800079a:	b083      	sub	sp, #12
 800079c:	af00      	add	r7, sp, #0
 800079e:	6078      	str	r0, [r7, #4]
 80007a0:	460b      	mov	r3, r1
 80007a2:	807b      	strh	r3, [r7, #2]
  /* Check the parameters */
  assert_param(IS_DMA_ALL_PERIPH(DMAy_Channelx));
  
/*--------------------------- DMAy Channelx CNDTR Configuration ---------------*/
  /* Write to DMAy Channelx CNDTR */
  DMAy_Channelx->CNDTR = DataNumber;  
 80007a4:	887a      	ldrh	r2, [r7, #2]
 80007a6:	687b      	ldr	r3, [r7, #4]
 80007a8:	605a      	str	r2, [r3, #4]
}
 80007aa:	bf00      	nop
 80007ac:	370c      	adds	r7, #12
 80007ae:	46bd      	mov	sp, r7
 80007b0:	bc80      	pop	{r7}
 80007b2:	4770      	bx	lr

080007b4 <DMA_ITConfig>:
  * @param  NewState: new state of the specified DMA interrupts.
  *         This parameter can be: ENABLE or DISABLE.
  * @retval None
  */
void DMA_ITConfig(DMA_Channel_TypeDef* DMAy_Channelx, uint32_t DMA_IT, FunctionalState NewState)
{
 80007b4:	b480      	push	{r7}
 80007b6:	b085      	sub	sp, #20
 80007b8:	af00      	add	r7, sp, #0
 80007ba:	60f8      	str	r0, [r7, #12]
 80007bc:	60b9      	str	r1, [r7, #8]
 80007be:	4613      	mov	r3, r2
 80007c0:	71fb      	strb	r3, [r7, #7]
  /* Check the parameters */
  assert_param(IS_DMA_ALL_PERIPH(DMAy_Channelx));
  assert_param(IS_DMA_CONFIG_IT(DMA_IT));
  assert_param(IS_FUNCTIONAL_STATE(NewState));

  if (NewState != DISABLE)
 80007c2:	79fb      	ldrb	r3, [r7, #7]
 80007c4:	2b00      	cmp	r3, #0
 80007c6:	d006      	beq.n	80007d6 <DMA_ITConfig+0x22>
  {
    /* Enable the selected DMA interrupts */
    DMAy_Channelx->CCR |= DMA_IT;
 80007c8:	68fb      	ldr	r3, [r7, #12]
 80007ca:	681a      	ldr	r2, [r3, #0]
 80007cc:	68bb      	ldr	r3, [r7, #8]
 80007ce:	431a      	orrs	r2, r3
 80007d0:	68fb      	ldr	r3, [r7, #12]
 80007d2:	601a      	str	r2, [r3, #0]
  else
  {
    /* Disable the selected DMA interrupts */
    DMAy_Channelx->CCR &= ~DMA_IT;
  }
}
 80007d4:	e006      	b.n	80007e4 <DMA_ITConfig+0x30>
    DMAy_Channelx->CCR |= DMA_IT;
  }
  else
  {
    /* Disable the selected DMA interrupts */
    DMAy_Channelx->CCR &= ~DMA_IT;
 80007d6:	68fb      	ldr	r3, [r7, #12]
 80007d8:	681a      	ldr	r2, [r3, #0]
 80007da:	68bb      	ldr	r3, [r7, #8]
 80007dc:	43db      	mvns	r3, r3
 80007de:	401a      	ands	r2, r3
 80007e0:	68fb      	ldr	r3, [r7, #12]
 80007e2:	601a      	str	r2, [r3, #0]
  }
}
 80007e4:	bf00      	nop
 80007e6:	3714      	adds	r7, #20
 80007e8:	46bd      	mov	sp, r7
 80007ea:	bc80      	pop	{r7}
 80007ec:	4770      	bx	lr
 80007ee:	bf00      	nop

080007f0 <DMA_GetFlagStatus>:
  *    DMAy_FLAG_TEx). 
  *      
  * @retval The new state of DMAy_FLAG (SET or RESET).
  */
FlagStatus DMA_GetFlagStatus(uint32_t DMAy_FLAG)
{
 80007f0:	b480      	push	{r7}
 80007f2:	b085      	sub	sp, #20
 80007f4:	af00      	add	r7, sp, #0
 80007f6:	6078      	str	r0, [r7, #4]
  FlagStatus bitstatus = RESET;
 80007f8:	2300      	movs	r3, #0
 80007fa:	73fb      	strb	r3, [r7, #15]
  uint32_t tmpreg = 0;
 80007fc:	2300      	movs	r3, #0
 80007fe:	60bb      	str	r3, [r7, #8]

  /* Check the parameters */
  assert_param(IS_DMA_GET_FLAG(DMAy_FLAG));

  /* Calculate the used DMAy */
  if ((DMAy_FLAG & FLAG_MASK) == (uint32_t)RESET)
 8000800:	687b      	ldr	r3, [r7, #4]
 8000802:	f003 5380 	and.w	r3, r3, #268435456	; 0x10000000
 8000806:	2b00      	cmp	r3, #0
 8000808:	d103      	bne.n	8000812 <DMA_GetFlagStatus+0x22>
  {
    /* Get DMA1 ISR register value */
    tmpreg = DMA1->ISR;
 800080a:	4b0b      	ldr	r3, [pc, #44]	; (8000838 <DMA_GetFlagStatus+0x48>)
 800080c:	681b      	ldr	r3, [r3, #0]
 800080e:	60bb      	str	r3, [r7, #8]
 8000810:	e002      	b.n	8000818 <DMA_GetFlagStatus+0x28>
  }
  else
  {
    /* Get DMA2 ISR register value */
    tmpreg = DMA2->ISR;
 8000812:	4b0a      	ldr	r3, [pc, #40]	; (800083c <DMA_GetFlagStatus+0x4c>)
 8000814:	681b      	ldr	r3, [r3, #0]
 8000816:	60bb      	str	r3, [r7, #8]
  }

  /* Check the status of the specified DMAy flag */
  if ((tmpreg & DMAy_FLAG) != (uint32_t)RESET)
 8000818:	68ba      	ldr	r2, [r7, #8]
 800081a:	687b      	ldr	r3, [r7, #4]
 800081c:	4013      	ands	r3, r2
 800081e:	2b00      	cmp	r3, #0
 8000820:	d002      	beq.n	8000828 <DMA_GetFlagStatus+0x38>
  {
    /* DMAy_FLAG is set */
    bitstatus = SET;
 8000822:	2301      	movs	r3, #1
 8000824:	73fb      	strb	r3, [r7, #15]
 8000826:	e001      	b.n	800082c <DMA_GetFlagStatus+0x3c>
  }
  else
  {
    /* DMAy_FLAG is reset */
    bitstatus = RESET;
 8000828:	2300      	movs	r3, #0
 800082a:	73fb      	strb	r3, [r7, #15]
  }
  
  /* Return the DMAy_FLAG status */
  return  bitstatus;
 800082c:	7bfb      	ldrb	r3, [r7, #15]
}
 800082e:	4618      	mov	r0, r3
 8000830:	3714      	adds	r7, #20
 8000832:	46bd      	mov	sp, r7
 8000834:	bc80      	pop	{r7}
 8000836:	4770      	bx	lr
 8000838:	40026000 	.word	0x40026000
 800083c:	40026400 	.word	0x40026400

08000840 <DMA_ClearFlag>:
  *    Transfer Error flags: DMAy_FLAG_TCx, DMAy_FLAG_HTx and DMAy_FLAG_TEx).  
  *      
  * @retval None
  */
void DMA_ClearFlag(uint32_t DMAy_FLAG)
{
 8000840:	b480      	push	{r7}
 8000842:	b083      	sub	sp, #12
 8000844:	af00      	add	r7, sp, #0
 8000846:	6078      	str	r0, [r7, #4]
  /* Check the parameters */
  assert_param(IS_DMA_CLEAR_FLAG(DMAy_FLAG));

  if ((DMAy_FLAG & FLAG_MASK) == (uint32_t)RESET)
 8000848:	687b      	ldr	r3, [r7, #4]
 800084a:	f003 5380 	and.w	r3, r3, #268435456	; 0x10000000
 800084e:	2b00      	cmp	r3, #0
 8000850:	d103      	bne.n	800085a <DMA_ClearFlag+0x1a>
  {
    /* Clear the selected DMAy flags */
    DMA1->IFCR = DMAy_FLAG;
 8000852:	4a06      	ldr	r2, [pc, #24]	; (800086c <DMA_ClearFlag+0x2c>)
 8000854:	687b      	ldr	r3, [r7, #4]
 8000856:	6053      	str	r3, [r2, #4]
  else
  {
    /* Clear the selected DMAy flags */
    DMA2->IFCR = DMAy_FLAG;
  }  
}
 8000858:	e002      	b.n	8000860 <DMA_ClearFlag+0x20>
    DMA1->IFCR = DMAy_FLAG;
  }
  else
  {
    /* Clear the selected DMAy flags */
    DMA2->IFCR = DMAy_FLAG;
 800085a:	4a05      	ldr	r2, [pc, #20]	; (8000870 <DMA_ClearFlag+0x30>)
 800085c:	687b      	ldr	r3, [r7, #4]
 800085e:	6053      	str	r3, [r2, #4]
  }  
}
 8000860:	bf00      	nop
 8000862:	370c      	adds	r7, #12
 8000864:	46bd      	mov	sp, r7
 8000866:	bc80      	pop	{r7}
 8000868:	4770      	bx	lr
 800086a:	bf00      	nop
 800086c:	40026000 	.word	0x40026000
 8000870:	40026400 	.word	0x40026400

08000874 <GPIO_Init>:
  *         peripheral.

  * @retval None
  */
void GPIO_Init(GPIO_TypeDef* GPIOx, GPIO_InitTypeDef* GPIO_InitStruct)
{
 8000874:	b480      	push	{r7}
 8000876:	b087      	sub	sp, #28
 8000878:	af00      	add	r7, sp, #0
 800087a:	6078      	str	r0, [r7, #4]
 800087c:	6039      	str	r1, [r7, #0]
  uint32_t pinpos = 0x00, pos = 0x00 , currentpin = 0x00;
 800087e:	2300      	movs	r3, #0
 8000880:	617b      	str	r3, [r7, #20]
 8000882:	2300      	movs	r3, #0
 8000884:	613b      	str	r3, [r7, #16]
 8000886:	2300      	movs	r3, #0
 8000888:	60fb      	str	r3, [r7, #12]
  assert_param(IS_GPIO_MODE(GPIO_InitStruct->GPIO_Mode));
  assert_param(IS_GPIO_PUPD(GPIO_InitStruct->GPIO_PuPd));

  /* -------------------------Configure the port pins---------------- */
  /*-- GPIO Mode Configuration --*/
  for (pinpos = 0x00; pinpos < 0x10; pinpos++)
 800088a:	2300      	movs	r3, #0
 800088c:	617b      	str	r3, [r7, #20]
 800088e:	e07e      	b.n	800098e <GPIO_Init+0x11a>
  {
    pos = ((uint32_t)0x01) << pinpos;
 8000890:	2201      	movs	r2, #1
 8000892:	697b      	ldr	r3, [r7, #20]
 8000894:	fa02 f303 	lsl.w	r3, r2, r3
 8000898:	613b      	str	r3, [r7, #16]

    /* Get the port pins position */
    currentpin = (GPIO_InitStruct->GPIO_Pin) & pos;
 800089a:	683b      	ldr	r3, [r7, #0]
 800089c:	681a      	ldr	r2, [r3, #0]
 800089e:	693b      	ldr	r3, [r7, #16]
 80008a0:	4013      	ands	r3, r2
 80008a2:	60fb      	str	r3, [r7, #12]

    if (currentpin == pos)
 80008a4:	68fa      	ldr	r2, [r7, #12]
 80008a6:	693b      	ldr	r3, [r7, #16]
 80008a8:	429a      	cmp	r2, r3
 80008aa:	d16d      	bne.n	8000988 <GPIO_Init+0x114>
    {
      GPIOx->MODER  &= ~(GPIO_MODER_MODER0 << (pinpos * 2));
 80008ac:	687b      	ldr	r3, [r7, #4]
 80008ae:	681a      	ldr	r2, [r3, #0]
 80008b0:	697b      	ldr	r3, [r7, #20]
 80008b2:	005b      	lsls	r3, r3, #1
 80008b4:	2103      	movs	r1, #3
 80008b6:	fa01 f303 	lsl.w	r3, r1, r3
 80008ba:	43db      	mvns	r3, r3
 80008bc:	401a      	ands	r2, r3
 80008be:	687b      	ldr	r3, [r7, #4]
 80008c0:	601a      	str	r2, [r3, #0]

      GPIOx->MODER |= (((uint32_t)GPIO_InitStruct->GPIO_Mode) << (pinpos * 2));
 80008c2:	687b      	ldr	r3, [r7, #4]
 80008c4:	681a      	ldr	r2, [r3, #0]
 80008c6:	683b      	ldr	r3, [r7, #0]
 80008c8:	791b      	ldrb	r3, [r3, #4]
 80008ca:	4619      	mov	r1, r3
 80008cc:	697b      	ldr	r3, [r7, #20]
 80008ce:	005b      	lsls	r3, r3, #1
 80008d0:	fa01 f303 	lsl.w	r3, r1, r3
 80008d4:	431a      	orrs	r2, r3
 80008d6:	687b      	ldr	r3, [r7, #4]
 80008d8:	601a      	str	r2, [r3, #0]

      if ((GPIO_InitStruct->GPIO_Mode == GPIO_Mode_OUT) || (GPIO_InitStruct->GPIO_Mode == GPIO_Mode_AF))
 80008da:	683b      	ldr	r3, [r7, #0]
 80008dc:	791b      	ldrb	r3, [r3, #4]
 80008de:	2b01      	cmp	r3, #1
 80008e0:	d003      	beq.n	80008ea <GPIO_Init+0x76>
 80008e2:	683b      	ldr	r3, [r7, #0]
 80008e4:	791b      	ldrb	r3, [r3, #4]
 80008e6:	2b02      	cmp	r3, #2
 80008e8:	d136      	bne.n	8000958 <GPIO_Init+0xe4>
      {
        /* Check Speed mode parameters */
        assert_param(IS_GPIO_SPEED(GPIO_InitStruct->GPIO_Speed));

        /* Speed mode configuration */
        GPIOx->OSPEEDR &= ~(GPIO_OSPEEDER_OSPEEDR0 << (pinpos * 2));
 80008ea:	687b      	ldr	r3, [r7, #4]
 80008ec:	689a      	ldr	r2, [r3, #8]
 80008ee:	697b      	ldr	r3, [r7, #20]
 80008f0:	005b      	lsls	r3, r3, #1
 80008f2:	2103      	movs	r1, #3
 80008f4:	fa01 f303 	lsl.w	r3, r1, r3
 80008f8:	43db      	mvns	r3, r3
 80008fa:	401a      	ands	r2, r3
 80008fc:	687b      	ldr	r3, [r7, #4]
 80008fe:	609a      	str	r2, [r3, #8]
        GPIOx->OSPEEDR |= ((uint32_t)(GPIO_InitStruct->GPIO_Speed) << (pinpos * 2));
 8000900:	687b      	ldr	r3, [r7, #4]
 8000902:	689a      	ldr	r2, [r3, #8]
 8000904:	683b      	ldr	r3, [r7, #0]
 8000906:	795b      	ldrb	r3, [r3, #5]
 8000908:	4619      	mov	r1, r3
 800090a:	697b      	ldr	r3, [r7, #20]
 800090c:	005b      	lsls	r3, r3, #1
 800090e:	fa01 f303 	lsl.w	r3, r1, r3
 8000912:	431a      	orrs	r2, r3
 8000914:	687b      	ldr	r3, [r7, #4]
 8000916:	609a      	str	r2, [r3, #8]

        /*Check Output mode parameters */
        assert_param(IS_GPIO_OTYPE(GPIO_InitStruct->GPIO_OType));

        /* Output mode configuration */
        GPIOx->OTYPER  &= ~((GPIO_OTYPER_OT_0) << ((uint16_t)pinpos)) ;
 8000918:	687b      	ldr	r3, [r7, #4]
 800091a:	889b      	ldrh	r3, [r3, #4]
 800091c:	b29a      	uxth	r2, r3
 800091e:	697b      	ldr	r3, [r7, #20]
 8000920:	b29b      	uxth	r3, r3
 8000922:	2101      	movs	r1, #1
 8000924:	fa01 f303 	lsl.w	r3, r1, r3
 8000928:	b29b      	uxth	r3, r3
 800092a:	43db      	mvns	r3, r3
 800092c:	b29b      	uxth	r3, r3
 800092e:	4013      	ands	r3, r2
 8000930:	b29a      	uxth	r2, r3
 8000932:	687b      	ldr	r3, [r7, #4]
 8000934:	809a      	strh	r2, [r3, #4]
        GPIOx->OTYPER |= (uint16_t)(((uint16_t)GPIO_InitStruct->GPIO_OType) << ((uint16_t)pinpos));
 8000936:	687b      	ldr	r3, [r7, #4]
 8000938:	889b      	ldrh	r3, [r3, #4]
 800093a:	b29b      	uxth	r3, r3
 800093c:	b21a      	sxth	r2, r3
 800093e:	683b      	ldr	r3, [r7, #0]
 8000940:	799b      	ldrb	r3, [r3, #6]
 8000942:	4619      	mov	r1, r3
 8000944:	697b      	ldr	r3, [r7, #20]
 8000946:	b29b      	uxth	r3, r3
 8000948:	fa01 f303 	lsl.w	r3, r1, r3
 800094c:	b21b      	sxth	r3, r3
 800094e:	4313      	orrs	r3, r2
 8000950:	b21b      	sxth	r3, r3
 8000952:	b29a      	uxth	r2, r3
 8000954:	687b      	ldr	r3, [r7, #4]
 8000956:	809a      	strh	r2, [r3, #4]
      }

      /* Pull-up Pull down resistor configuration */
      GPIOx->PUPDR &= ~(GPIO_PUPDR_PUPDR0 << ((uint16_t)pinpos * 2));
 8000958:	687b      	ldr	r3, [r7, #4]
 800095a:	68da      	ldr	r2, [r3, #12]
 800095c:	697b      	ldr	r3, [r7, #20]
 800095e:	b29b      	uxth	r3, r3
 8000960:	005b      	lsls	r3, r3, #1
 8000962:	2103      	movs	r1, #3
 8000964:	fa01 f303 	lsl.w	r3, r1, r3
 8000968:	43db      	mvns	r3, r3
 800096a:	401a      	ands	r2, r3
 800096c:	687b      	ldr	r3, [r7, #4]
 800096e:	60da      	str	r2, [r3, #12]
      GPIOx->PUPDR |= (((uint32_t)GPIO_InitStruct->GPIO_PuPd) << (pinpos * 2));
 8000970:	687b      	ldr	r3, [r7, #4]
 8000972:	68da      	ldr	r2, [r3, #12]
 8000974:	683b      	ldr	r3, [r7, #0]
 8000976:	79db      	ldrb	r3, [r3, #7]
 8000978:	4619      	mov	r1, r3
 800097a:	697b      	ldr	r3, [r7, #20]
 800097c:	005b      	lsls	r3, r3, #1
 800097e:	fa01 f303 	lsl.w	r3, r1, r3
 8000982:	431a      	orrs	r2, r3
 8000984:	687b      	ldr	r3, [r7, #4]
 8000986:	60da      	str	r2, [r3, #12]
  assert_param(IS_GPIO_MODE(GPIO_InitStruct->GPIO_Mode));
  assert_param(IS_GPIO_PUPD(GPIO_InitStruct->GPIO_PuPd));

  /* -------------------------Configure the port pins---------------- */
  /*-- GPIO Mode Configuration --*/
  for (pinpos = 0x00; pinpos < 0x10; pinpos++)
 8000988:	697b      	ldr	r3, [r7, #20]
 800098a:	3301      	adds	r3, #1
 800098c:	617b      	str	r3, [r7, #20]
 800098e:	697b      	ldr	r3, [r7, #20]
 8000990:	2b0f      	cmp	r3, #15
 8000992:	f67f af7d 	bls.w	8000890 <GPIO_Init+0x1c>
      /* Pull-up Pull down resistor configuration */
      GPIOx->PUPDR &= ~(GPIO_PUPDR_PUPDR0 << ((uint16_t)pinpos * 2));
      GPIOx->PUPDR |= (((uint32_t)GPIO_InitStruct->GPIO_PuPd) << (pinpos * 2));
    }
  }
}
 8000996:	bf00      	nop
 8000998:	371c      	adds	r7, #28
 800099a:	46bd      	mov	sp, r7
 800099c:	bc80      	pop	{r7}
 800099e:	4770      	bx	lr

080009a0 <GPIO_PinAFConfig>:
  *        alternate function I/O pins.  
  * @note EVENTOUT is not mapped on PH0, PH1 and PH2.  
  * @retval None
  */
void GPIO_PinAFConfig(GPIO_TypeDef* GPIOx, uint16_t GPIO_PinSource, uint8_t GPIO_AF)
{
 80009a0:	b480      	push	{r7}
 80009a2:	b085      	sub	sp, #20
 80009a4:	af00      	add	r7, sp, #0
 80009a6:	6078      	str	r0, [r7, #4]
 80009a8:	460b      	mov	r3, r1
 80009aa:	807b      	strh	r3, [r7, #2]
 80009ac:	4613      	mov	r3, r2
 80009ae:	707b      	strb	r3, [r7, #1]
  uint32_t temp = 0x00;
 80009b0:	2300      	movs	r3, #0
 80009b2:	60fb      	str	r3, [r7, #12]
  uint32_t temp_2 = 0x00;
 80009b4:	2300      	movs	r3, #0
 80009b6:	60bb      	str	r3, [r7, #8]
  /* Check the parameters */
  assert_param(IS_GPIO_ALL_PERIPH(GPIOx));
  assert_param(IS_GPIO_PIN_SOURCE(GPIO_PinSource));
  assert_param(IS_GPIO_AF(GPIO_AF));
  
  temp = ((uint32_t)(GPIO_AF) << ((uint32_t)((uint32_t)GPIO_PinSource & (uint32_t)0x07) * 4)) ;
 80009b8:	787a      	ldrb	r2, [r7, #1]
 80009ba:	887b      	ldrh	r3, [r7, #2]
 80009bc:	f003 0307 	and.w	r3, r3, #7
 80009c0:	009b      	lsls	r3, r3, #2
 80009c2:	fa02 f303 	lsl.w	r3, r2, r3
 80009c6:	60fb      	str	r3, [r7, #12]
  GPIOx->AFR[GPIO_PinSource >> 0x03] &= ~((uint32_t)0xF << ((uint32_t)((uint32_t)GPIO_PinSource & (uint32_t)0x07) * 4)) ;
 80009c8:	887b      	ldrh	r3, [r7, #2]
 80009ca:	08db      	lsrs	r3, r3, #3
 80009cc:	b29b      	uxth	r3, r3
 80009ce:	4618      	mov	r0, r3
 80009d0:	887b      	ldrh	r3, [r7, #2]
 80009d2:	08db      	lsrs	r3, r3, #3
 80009d4:	b29b      	uxth	r3, r3
 80009d6:	461a      	mov	r2, r3
 80009d8:	687b      	ldr	r3, [r7, #4]
 80009da:	3208      	adds	r2, #8
 80009dc:	f853 2022 	ldr.w	r2, [r3, r2, lsl #2]
 80009e0:	887b      	ldrh	r3, [r7, #2]
 80009e2:	f003 0307 	and.w	r3, r3, #7
 80009e6:	009b      	lsls	r3, r3, #2
 80009e8:	210f      	movs	r1, #15
 80009ea:	fa01 f303 	lsl.w	r3, r1, r3
 80009ee:	43db      	mvns	r3, r3
 80009f0:	ea02 0103 	and.w	r1, r2, r3
 80009f4:	687b      	ldr	r3, [r7, #4]
 80009f6:	f100 0208 	add.w	r2, r0, #8
 80009fa:	f843 1022 	str.w	r1, [r3, r2, lsl #2]
  temp_2 = GPIOx->AFR[GPIO_PinSource >> 0x03] | temp;
 80009fe:	887b      	ldrh	r3, [r7, #2]
 8000a00:	08db      	lsrs	r3, r3, #3
 8000a02:	b29b      	uxth	r3, r3
 8000a04:	461a      	mov	r2, r3
 8000a06:	687b      	ldr	r3, [r7, #4]
 8000a08:	3208      	adds	r2, #8
 8000a0a:	f853 2022 	ldr.w	r2, [r3, r2, lsl #2]
 8000a0e:	68fb      	ldr	r3, [r7, #12]
 8000a10:	4313      	orrs	r3, r2
 8000a12:	60bb      	str	r3, [r7, #8]
  GPIOx->AFR[GPIO_PinSource >> 0x03] = temp_2;
 8000a14:	887b      	ldrh	r3, [r7, #2]
 8000a16:	08db      	lsrs	r3, r3, #3
 8000a18:	b29b      	uxth	r3, r3
 8000a1a:	461a      	mov	r2, r3
 8000a1c:	687b      	ldr	r3, [r7, #4]
 8000a1e:	3208      	adds	r2, #8
 8000a20:	68b9      	ldr	r1, [r7, #8]
 8000a22:	f843 1022 	str.w	r1, [r3, r2, lsl #2]
}
 8000a26:	bf00      	nop
 8000a28:	3714      	adds	r7, #20
 8000a2a:	46bd      	mov	sp, r7
 8000a2c:	bc80      	pop	{r7}
 8000a2e:	4770      	bx	lr

08000a30 <I2C_DeInit>:
  * @brief  Deinitializes the I2Cx peripheral registers to their default reset values.
  * @param  I2Cx: where x can be 1 or 2 to select the I2C peripheral.
  * @retval None
  */
void I2C_DeInit(I2C_TypeDef* I2Cx)
{
 8000a30:	b580      	push	{r7, lr}
 8000a32:	b082      	sub	sp, #8
 8000a34:	af00      	add	r7, sp, #0
 8000a36:	6078      	str	r0, [r7, #4]
  /* Check the parameters */
  assert_param(IS_I2C_ALL_PERIPH(I2Cx));

  if (I2Cx == I2C1)
 8000a38:	687b      	ldr	r3, [r7, #4]
 8000a3a:	4a0e      	ldr	r2, [pc, #56]	; (8000a74 <I2C_DeInit+0x44>)
 8000a3c:	4293      	cmp	r3, r2
 8000a3e:	d10a      	bne.n	8000a56 <I2C_DeInit+0x26>
  {
    /* Enable I2C1 reset state */
    RCC_APB1PeriphResetCmd(RCC_APB1Periph_I2C1, ENABLE);
 8000a40:	2101      	movs	r1, #1
 8000a42:	f44f 1000 	mov.w	r0, #2097152	; 0x200000
 8000a46:	f000 fb3d 	bl	80010c4 <RCC_APB1PeriphResetCmd>
    /* Release I2C1 from reset state */
    RCC_APB1PeriphResetCmd(RCC_APB1Periph_I2C1, DISABLE);
 8000a4a:	2100      	movs	r1, #0
 8000a4c:	f44f 1000 	mov.w	r0, #2097152	; 0x200000
 8000a50:	f000 fb38 	bl	80010c4 <RCC_APB1PeriphResetCmd>
    /* Enable I2C2 reset state */
    RCC_APB1PeriphResetCmd(RCC_APB1Periph_I2C2, ENABLE);
    /* Release I2C2 from reset state */
    RCC_APB1PeriphResetCmd(RCC_APB1Periph_I2C2, DISABLE);
  }
}
 8000a54:	e009      	b.n	8000a6a <I2C_DeInit+0x3a>
    RCC_APB1PeriphResetCmd(RCC_APB1Periph_I2C1, DISABLE);
  }
  else
  {
    /* Enable I2C2 reset state */
    RCC_APB1PeriphResetCmd(RCC_APB1Periph_I2C2, ENABLE);
 8000a56:	2101      	movs	r1, #1
 8000a58:	f44f 0080 	mov.w	r0, #4194304	; 0x400000
 8000a5c:	f000 fb32 	bl	80010c4 <RCC_APB1PeriphResetCmd>
    /* Release I2C2 from reset state */
    RCC_APB1PeriphResetCmd(RCC_APB1Periph_I2C2, DISABLE);
 8000a60:	2100      	movs	r1, #0
 8000a62:	f44f 0080 	mov.w	r0, #4194304	; 0x400000
 8000a66:	f000 fb2d 	bl	80010c4 <RCC_APB1PeriphResetCmd>
  }
}
 8000a6a:	bf00      	nop
 8000a6c:	3708      	adds	r7, #8
 8000a6e:	46bd      	mov	sp, r7
 8000a70:	bd80      	pop	{r7, pc}
 8000a72:	bf00      	nop
 8000a74:	40005400 	.word	0x40005400

08000a78 <I2C_Init>:
  * @param  I2C_InitStruct: pointer to a I2C_InitTypeDef structure that
  *   contains the configuration information for the specified I2C peripheral.
  * @retval None
  */
void I2C_Init(I2C_TypeDef* I2Cx, I2C_InitTypeDef* I2C_InitStruct)
{
 8000a78:	b580      	push	{r7, lr}
 8000a7a:	b08a      	sub	sp, #40	; 0x28
 8000a7c:	af00      	add	r7, sp, #0
 8000a7e:	6078      	str	r0, [r7, #4]
 8000a80:	6039      	str	r1, [r7, #0]
  uint16_t tmpreg = 0, freqrange = 0;
 8000a82:	2300      	movs	r3, #0
 8000a84:	84fb      	strh	r3, [r7, #38]	; 0x26
 8000a86:	2300      	movs	r3, #0
 8000a88:	847b      	strh	r3, [r7, #34]	; 0x22
  uint16_t result = 0x04;
 8000a8a:	2304      	movs	r3, #4
 8000a8c:	84bb      	strh	r3, [r7, #36]	; 0x24
  uint32_t pclk1 = 8000000;
 8000a8e:	4b57      	ldr	r3, [pc, #348]	; (8000bec <I2C_Init+0x174>)
 8000a90:	61fb      	str	r3, [r7, #28]
  assert_param(IS_I2C_ACK_STATE(I2C_InitStruct->I2C_Ack));
  assert_param(IS_I2C_ACKNOWLEDGE_ADDRESS(I2C_InitStruct->I2C_AcknowledgedAddress));

/*---------------------------- I2Cx CR2 Configuration ------------------------*/
  /* Get the I2Cx CR2 value */
  tmpreg = I2Cx->CR2;
 8000a92:	687b      	ldr	r3, [r7, #4]
 8000a94:	889b      	ldrh	r3, [r3, #4]
 8000a96:	84fb      	strh	r3, [r7, #38]	; 0x26
  /* Clear frequency FREQ[5:0] bits */
  tmpreg &= (uint16_t)~((uint16_t)I2C_CR2_FREQ);
 8000a98:	8cfb      	ldrh	r3, [r7, #38]	; 0x26
 8000a9a:	f023 033f 	bic.w	r3, r3, #63	; 0x3f
 8000a9e:	84fb      	strh	r3, [r7, #38]	; 0x26
  /* Get pclk1 frequency value */
  RCC_GetClocksFreq(&rcc_clocks);
 8000aa0:	f107 030c 	add.w	r3, r7, #12
 8000aa4:	4618      	mov	r0, r3
 8000aa6:	f000 f9d9 	bl	8000e5c <RCC_GetClocksFreq>
  pclk1 = rcc_clocks.PCLK1_Frequency;
 8000aaa:	697b      	ldr	r3, [r7, #20]
 8000aac:	61fb      	str	r3, [r7, #28]
  /* Set frequency bits depending on pclk1 value */
  freqrange = (uint16_t)(pclk1 / 1000000);
 8000aae:	69fb      	ldr	r3, [r7, #28]
 8000ab0:	4a4f      	ldr	r2, [pc, #316]	; (8000bf0 <I2C_Init+0x178>)
 8000ab2:	fba2 2303 	umull	r2, r3, r2, r3
 8000ab6:	0c9b      	lsrs	r3, r3, #18
 8000ab8:	847b      	strh	r3, [r7, #34]	; 0x22
  tmpreg |= freqrange;
 8000aba:	8cfa      	ldrh	r2, [r7, #38]	; 0x26
 8000abc:	8c7b      	ldrh	r3, [r7, #34]	; 0x22
 8000abe:	4313      	orrs	r3, r2
 8000ac0:	84fb      	strh	r3, [r7, #38]	; 0x26
  /* Write to I2Cx CR2 */
  I2Cx->CR2 = tmpreg;
 8000ac2:	687b      	ldr	r3, [r7, #4]
 8000ac4:	8cfa      	ldrh	r2, [r7, #38]	; 0x26
 8000ac6:	809a      	strh	r2, [r3, #4]

/*---------------------------- I2Cx CCR Configuration ------------------------*/
  /* Disable the selected I2C peripheral to configure TRISE */
  I2Cx->CR1 &= (uint16_t)~((uint16_t)I2C_CR1_PE);
 8000ac8:	687b      	ldr	r3, [r7, #4]
 8000aca:	881b      	ldrh	r3, [r3, #0]
 8000acc:	b29b      	uxth	r3, r3
 8000ace:	f023 0301 	bic.w	r3, r3, #1
 8000ad2:	b29a      	uxth	r2, r3
 8000ad4:	687b      	ldr	r3, [r7, #4]
 8000ad6:	801a      	strh	r2, [r3, #0]
  /* Reset tmpreg value */
  /* Clear F/S, DUTY and CCR[11:0] bits */
  tmpreg = 0;
 8000ad8:	2300      	movs	r3, #0
 8000ada:	84fb      	strh	r3, [r7, #38]	; 0x26

  /* Configure speed in standard mode */
  if (I2C_InitStruct->I2C_ClockSpeed <= 100000)
 8000adc:	683b      	ldr	r3, [r7, #0]
 8000ade:	681b      	ldr	r3, [r3, #0]
 8000ae0:	4a44      	ldr	r2, [pc, #272]	; (8000bf4 <I2C_Init+0x17c>)
 8000ae2:	4293      	cmp	r3, r2
 8000ae4:	d815      	bhi.n	8000b12 <I2C_Init+0x9a>
  {
    /* Standard mode speed calculate */
    result = (uint16_t)(pclk1 / (I2C_InitStruct->I2C_ClockSpeed << 1));
 8000ae6:	683b      	ldr	r3, [r7, #0]
 8000ae8:	681b      	ldr	r3, [r3, #0]
 8000aea:	005b      	lsls	r3, r3, #1
 8000aec:	69fa      	ldr	r2, [r7, #28]
 8000aee:	fbb2 f3f3 	udiv	r3, r2, r3
 8000af2:	84bb      	strh	r3, [r7, #36]	; 0x24
    /* Test if CCR value is under 0x4*/
    if (result < 0x04)
 8000af4:	8cbb      	ldrh	r3, [r7, #36]	; 0x24
 8000af6:	2b03      	cmp	r3, #3
 8000af8:	d801      	bhi.n	8000afe <I2C_Init+0x86>
    {
      /* Set minimum allowed value */
      result = 0x04;  
 8000afa:	2304      	movs	r3, #4
 8000afc:	84bb      	strh	r3, [r7, #36]	; 0x24
    }
    /* Set speed value for standard mode */
    tmpreg |= result;	  
 8000afe:	8cfa      	ldrh	r2, [r7, #38]	; 0x26
 8000b00:	8cbb      	ldrh	r3, [r7, #36]	; 0x24
 8000b02:	4313      	orrs	r3, r2
 8000b04:	84fb      	strh	r3, [r7, #38]	; 0x26
    /* Set Maximum Rise Time for standard mode */
    I2Cx->TRISE = freqrange + 1; 
 8000b06:	8c7b      	ldrh	r3, [r7, #34]	; 0x22
 8000b08:	3301      	adds	r3, #1
 8000b0a:	b29a      	uxth	r2, r3
 8000b0c:	687b      	ldr	r3, [r7, #4]
 8000b0e:	841a      	strh	r2, [r3, #32]
 8000b10:	e040      	b.n	8000b94 <I2C_Init+0x11c>
  /* Configure speed in fast mode */
  /* To use the I2C at 400 KHz (in fast mode), the PCLK1 frequency (I2C peripheral
     input clock) must be a multiple of 10 MHz */
  else /*(I2C_InitStruct->I2C_ClockSpeed <= 400000)*/
  {
    if (I2C_InitStruct->I2C_DutyCycle == I2C_DutyCycle_2)
 8000b12:	683b      	ldr	r3, [r7, #0]
 8000b14:	88db      	ldrh	r3, [r3, #6]
 8000b16:	f64b 72ff 	movw	r2, #49151	; 0xbfff
 8000b1a:	4293      	cmp	r3, r2
 8000b1c:	d109      	bne.n	8000b32 <I2C_Init+0xba>
    {
      /* Fast mode speed calculate: Tlow/Thigh = 2 */
      result = (uint16_t)(pclk1 / (I2C_InitStruct->I2C_ClockSpeed * 3));
 8000b1e:	683b      	ldr	r3, [r7, #0]
 8000b20:	681a      	ldr	r2, [r3, #0]
 8000b22:	4613      	mov	r3, r2
 8000b24:	005b      	lsls	r3, r3, #1
 8000b26:	4413      	add	r3, r2
 8000b28:	69fa      	ldr	r2, [r7, #28]
 8000b2a:	fbb2 f3f3 	udiv	r3, r2, r3
 8000b2e:	84bb      	strh	r3, [r7, #36]	; 0x24
 8000b30:	e00e      	b.n	8000b50 <I2C_Init+0xd8>
    }
    else /*I2C_InitStruct->I2C_DutyCycle == I2C_DutyCycle_16_9*/
    {
      /* Fast mode speed calculate: Tlow/Thigh = 16/9 */
      result = (uint16_t)(pclk1 / (I2C_InitStruct->I2C_ClockSpeed * 25));
 8000b32:	683b      	ldr	r3, [r7, #0]
 8000b34:	681a      	ldr	r2, [r3, #0]
 8000b36:	4613      	mov	r3, r2
 8000b38:	009b      	lsls	r3, r3, #2
 8000b3a:	4413      	add	r3, r2
 8000b3c:	009a      	lsls	r2, r3, #2
 8000b3e:	4413      	add	r3, r2
 8000b40:	69fa      	ldr	r2, [r7, #28]
 8000b42:	fbb2 f3f3 	udiv	r3, r2, r3
 8000b46:	84bb      	strh	r3, [r7, #36]	; 0x24
      /* Set DUTY bit */
      result |= I2C_DutyCycle_16_9;
 8000b48:	8cbb      	ldrh	r3, [r7, #36]	; 0x24
 8000b4a:	f443 4380 	orr.w	r3, r3, #16384	; 0x4000
 8000b4e:	84bb      	strh	r3, [r7, #36]	; 0x24
    }

    /* Test if CCR value is under 0x1*/
    if ((result & I2C_CCR_CCR) == 0)
 8000b50:	8cbb      	ldrh	r3, [r7, #36]	; 0x24
 8000b52:	f3c3 030b 	ubfx	r3, r3, #0, #12
 8000b56:	2b00      	cmp	r3, #0
 8000b58:	d103      	bne.n	8000b62 <I2C_Init+0xea>
    {
      /* Set minimum allowed value */
      result |= (uint16_t)0x0001;  
 8000b5a:	8cbb      	ldrh	r3, [r7, #36]	; 0x24
 8000b5c:	f043 0301 	orr.w	r3, r3, #1
 8000b60:	84bb      	strh	r3, [r7, #36]	; 0x24
    }
    /* Set speed value and set F/S bit for fast mode */
    tmpreg |= (uint16_t)(result | I2C_CCR_FS);
 8000b62:	8cba      	ldrh	r2, [r7, #36]	; 0x24
 8000b64:	8cfb      	ldrh	r3, [r7, #38]	; 0x26
 8000b66:	4313      	orrs	r3, r2
 8000b68:	b29b      	uxth	r3, r3
 8000b6a:	ea6f 4343 	mvn.w	r3, r3, lsl #17
 8000b6e:	ea6f 4353 	mvn.w	r3, r3, lsr #17
 8000b72:	84fb      	strh	r3, [r7, #38]	; 0x26
    /* Set Maximum Rise Time for fast mode */
    I2Cx->TRISE = (uint16_t)(((freqrange * (uint16_t)300) / (uint16_t)1000) + (uint16_t)1);  
 8000b74:	8c7b      	ldrh	r3, [r7, #34]	; 0x22
 8000b76:	f44f 7296 	mov.w	r2, #300	; 0x12c
 8000b7a:	fb02 f303 	mul.w	r3, r2, r3
 8000b7e:	4a1e      	ldr	r2, [pc, #120]	; (8000bf8 <I2C_Init+0x180>)
 8000b80:	fb82 1203 	smull	r1, r2, r2, r3
 8000b84:	1192      	asrs	r2, r2, #6
 8000b86:	17db      	asrs	r3, r3, #31
 8000b88:	1ad3      	subs	r3, r2, r3
 8000b8a:	b29b      	uxth	r3, r3
 8000b8c:	3301      	adds	r3, #1
 8000b8e:	b29a      	uxth	r2, r3
 8000b90:	687b      	ldr	r3, [r7, #4]
 8000b92:	841a      	strh	r2, [r3, #32]
  }

  /* Write to I2Cx CCR */
  I2Cx->CCR = tmpreg;
 8000b94:	687b      	ldr	r3, [r7, #4]
 8000b96:	8cfa      	ldrh	r2, [r7, #38]	; 0x26
 8000b98:	839a      	strh	r2, [r3, #28]
  /* Enable the selected I2C peripheral */
  I2Cx->CR1 |= I2C_CR1_PE;
 8000b9a:	687b      	ldr	r3, [r7, #4]
 8000b9c:	881b      	ldrh	r3, [r3, #0]
 8000b9e:	b29b      	uxth	r3, r3
 8000ba0:	f043 0301 	orr.w	r3, r3, #1
 8000ba4:	b29a      	uxth	r2, r3
 8000ba6:	687b      	ldr	r3, [r7, #4]
 8000ba8:	801a      	strh	r2, [r3, #0]

/*---------------------------- I2Cx CR1 Configuration ------------------------*/
  /* Get the I2Cx CR1 value */
  tmpreg = I2Cx->CR1;
 8000baa:	687b      	ldr	r3, [r7, #4]
 8000bac:	881b      	ldrh	r3, [r3, #0]
 8000bae:	84fb      	strh	r3, [r7, #38]	; 0x26
  /* Clear ACK, SMBTYPE and  SMBUS bits */
  tmpreg &= CR1_CLEAR_MASK;
 8000bb0:	8cfb      	ldrh	r3, [r7, #38]	; 0x26
 8000bb2:	f423 6381 	bic.w	r3, r3, #1032	; 0x408
 8000bb6:	f023 0302 	bic.w	r3, r3, #2
 8000bba:	84fb      	strh	r3, [r7, #38]	; 0x26
  /* Configure I2Cx: mode and acknowledgement */
  /* Set SMBTYPE and SMBUS bits according to I2C_Mode value */
  /* Set ACK bit according to I2C_Ack value */
  tmpreg |= (uint16_t)((uint32_t)I2C_InitStruct->I2C_Mode | I2C_InitStruct->I2C_Ack);
 8000bbc:	683b      	ldr	r3, [r7, #0]
 8000bbe:	889a      	ldrh	r2, [r3, #4]
 8000bc0:	683b      	ldr	r3, [r7, #0]
 8000bc2:	895b      	ldrh	r3, [r3, #10]
 8000bc4:	4313      	orrs	r3, r2
 8000bc6:	b29a      	uxth	r2, r3
 8000bc8:	8cfb      	ldrh	r3, [r7, #38]	; 0x26
 8000bca:	4313      	orrs	r3, r2
 8000bcc:	84fb      	strh	r3, [r7, #38]	; 0x26
  /* Write to I2Cx CR1 */
  I2Cx->CR1 = tmpreg;
 8000bce:	687b      	ldr	r3, [r7, #4]
 8000bd0:	8cfa      	ldrh	r2, [r7, #38]	; 0x26
 8000bd2:	801a      	strh	r2, [r3, #0]

/*---------------------------- I2Cx OAR1 Configuration -----------------------*/
  /* Set I2Cx Own Address1 and acknowledged address */
  I2Cx->OAR1 = (I2C_InitStruct->I2C_AcknowledgedAddress | I2C_InitStruct->I2C_OwnAddress1);
 8000bd4:	683b      	ldr	r3, [r7, #0]
 8000bd6:	899a      	ldrh	r2, [r3, #12]
 8000bd8:	683b      	ldr	r3, [r7, #0]
 8000bda:	891b      	ldrh	r3, [r3, #8]
 8000bdc:	4313      	orrs	r3, r2
 8000bde:	b29a      	uxth	r2, r3
 8000be0:	687b      	ldr	r3, [r7, #4]
 8000be2:	811a      	strh	r2, [r3, #8]
}
 8000be4:	bf00      	nop
 8000be6:	3728      	adds	r7, #40	; 0x28
 8000be8:	46bd      	mov	sp, r7
 8000bea:	bd80      	pop	{r7, pc}
 8000bec:	007a1200 	.word	0x007a1200
 8000bf0:	431bde83 	.word	0x431bde83
 8000bf4:	000186a0 	.word	0x000186a0
 8000bf8:	10624dd3 	.word	0x10624dd3

08000bfc <I2C_Cmd>:
  * @param  NewState: new state of the I2Cx peripheral. 
  *   This parameter can be: ENABLE or DISABLE.
  * @retval None
  */
void I2C_Cmd(I2C_TypeDef* I2Cx, FunctionalState NewState)
{
 8000bfc:	b480      	push	{r7}
 8000bfe:	b083      	sub	sp, #12
 8000c00:	af00      	add	r7, sp, #0
 8000c02:	6078      	str	r0, [r7, #4]
 8000c04:	460b      	mov	r3, r1
 8000c06:	70fb      	strb	r3, [r7, #3]
  /* Check the parameters */
  assert_param(IS_I2C_ALL_PERIPH(I2Cx));
  assert_param(IS_FUNCTIONAL_STATE(NewState));
  if (NewState != DISABLE)
 8000c08:	78fb      	ldrb	r3, [r7, #3]
 8000c0a:	2b00      	cmp	r3, #0
 8000c0c:	d008      	beq.n	8000c20 <I2C_Cmd+0x24>
  {
    /* Enable the selected I2C peripheral */
    I2Cx->CR1 |= I2C_CR1_PE;
 8000c0e:	687b      	ldr	r3, [r7, #4]
 8000c10:	881b      	ldrh	r3, [r3, #0]
 8000c12:	b29b      	uxth	r3, r3
 8000c14:	f043 0301 	orr.w	r3, r3, #1
 8000c18:	b29a      	uxth	r2, r3
 8000c1a:	687b      	ldr	r3, [r7, #4]
 8000c1c:	801a      	strh	r2, [r3, #0]
  else
  {
    /* Disable the selected I2C peripheral */
    I2Cx->CR1 &= (uint16_t)~((uint16_t)I2C_CR1_PE);
  }
}
 8000c1e:	e007      	b.n	8000c30 <I2C_Cmd+0x34>
    I2Cx->CR1 |= I2C_CR1_PE;
  }
  else
  {
    /* Disable the selected I2C peripheral */
    I2Cx->CR1 &= (uint16_t)~((uint16_t)I2C_CR1_PE);
 8000c20:	687b      	ldr	r3, [r7, #4]
 8000c22:	881b      	ldrh	r3, [r3, #0]
 8000c24:	b29b      	uxth	r3, r3
 8000c26:	f023 0301 	bic.w	r3, r3, #1
 8000c2a:	b29a      	uxth	r2, r3
 8000c2c:	687b      	ldr	r3, [r7, #4]
 8000c2e:	801a      	strh	r2, [r3, #0]
  }
}
 8000c30:	bf00      	nop
 8000c32:	370c      	adds	r7, #12
 8000c34:	46bd      	mov	sp, r7
 8000c36:	bc80      	pop	{r7}
 8000c38:	4770      	bx	lr
 8000c3a:	bf00      	nop

08000c3c <I2C_GenerateSTART>:
  * @param  NewState: new state of the I2C START condition generation.
  *   This parameter can be: ENABLE or DISABLE.
  * @retval None.
  */
void I2C_GenerateSTART(I2C_TypeDef* I2Cx, FunctionalState NewState)
{
 8000c3c:	b480      	push	{r7}
 8000c3e:	b083      	sub	sp, #12
 8000c40:	af00      	add	r7, sp, #0
 8000c42:	6078      	str	r0, [r7, #4]
 8000c44:	460b      	mov	r3, r1
 8000c46:	70fb      	strb	r3, [r7, #3]
  /* Check the parameters */
  assert_param(IS_I2C_ALL_PERIPH(I2Cx));
  assert_param(IS_FUNCTIONAL_STATE(NewState));
  if (NewState != DISABLE)
 8000c48:	78fb      	ldrb	r3, [r7, #3]
 8000c4a:	2b00      	cmp	r3, #0
 8000c4c:	d008      	beq.n	8000c60 <I2C_GenerateSTART+0x24>
  {
    /* Generate a START condition */
    I2Cx->CR1 |= I2C_CR1_START;
 8000c4e:	687b      	ldr	r3, [r7, #4]
 8000c50:	881b      	ldrh	r3, [r3, #0]
 8000c52:	b29b      	uxth	r3, r3
 8000c54:	f443 7380 	orr.w	r3, r3, #256	; 0x100
 8000c58:	b29a      	uxth	r2, r3
 8000c5a:	687b      	ldr	r3, [r7, #4]
 8000c5c:	801a      	strh	r2, [r3, #0]
  else
  {
    /* Disable the START condition generation */
    I2Cx->CR1 &= (uint16_t)~((uint16_t)I2C_CR1_START);
  }
}
 8000c5e:	e007      	b.n	8000c70 <I2C_GenerateSTART+0x34>
    I2Cx->CR1 |= I2C_CR1_START;
  }
  else
  {
    /* Disable the START condition generation */
    I2Cx->CR1 &= (uint16_t)~((uint16_t)I2C_CR1_START);
 8000c60:	687b      	ldr	r3, [r7, #4]
 8000c62:	881b      	ldrh	r3, [r3, #0]
 8000c64:	b29b      	uxth	r3, r3
 8000c66:	f423 7380 	bic.w	r3, r3, #256	; 0x100
 8000c6a:	b29a      	uxth	r2, r3
 8000c6c:	687b      	ldr	r3, [r7, #4]
 8000c6e:	801a      	strh	r2, [r3, #0]
  }
}
 8000c70:	bf00      	nop
 8000c72:	370c      	adds	r7, #12
 8000c74:	46bd      	mov	sp, r7
 8000c76:	bc80      	pop	{r7}
 8000c78:	4770      	bx	lr
 8000c7a:	bf00      	nop

08000c7c <I2C_GenerateSTOP>:
  * @param  NewState: new state of the I2C STOP condition generation.
  *   This parameter can be: ENABLE or DISABLE.
  * @retval None.
  */
void I2C_GenerateSTOP(I2C_TypeDef* I2Cx, FunctionalState NewState)
{
 8000c7c:	b480      	push	{r7}
 8000c7e:	b083      	sub	sp, #12
 8000c80:	af00      	add	r7, sp, #0
 8000c82:	6078      	str	r0, [r7, #4]
 8000c84:	460b      	mov	r3, r1
 8000c86:	70fb      	strb	r3, [r7, #3]
  /* Check the parameters */
  assert_param(IS_I2C_ALL_PERIPH(I2Cx));
  assert_param(IS_FUNCTIONAL_STATE(NewState));
  if (NewState != DISABLE)
 8000c88:	78fb      	ldrb	r3, [r7, #3]
 8000c8a:	2b00      	cmp	r3, #0
 8000c8c:	d008      	beq.n	8000ca0 <I2C_GenerateSTOP+0x24>
  {
    /* Generate a STOP condition */
    I2Cx->CR1 |= I2C_CR1_STOP;
 8000c8e:	687b      	ldr	r3, [r7, #4]
 8000c90:	881b      	ldrh	r3, [r3, #0]
 8000c92:	b29b      	uxth	r3, r3
 8000c94:	f443 7300 	orr.w	r3, r3, #512	; 0x200
 8000c98:	b29a      	uxth	r2, r3
 8000c9a:	687b      	ldr	r3, [r7, #4]
 8000c9c:	801a      	strh	r2, [r3, #0]
  else
  {
    /* Disable the STOP condition generation */
    I2Cx->CR1 &= (uint16_t)~((uint16_t)I2C_CR1_STOP);
  }
}
 8000c9e:	e007      	b.n	8000cb0 <I2C_GenerateSTOP+0x34>
    I2Cx->CR1 |= I2C_CR1_STOP;
  }
  else
  {
    /* Disable the STOP condition generation */
    I2Cx->CR1 &= (uint16_t)~((uint16_t)I2C_CR1_STOP);
 8000ca0:	687b      	ldr	r3, [r7, #4]
 8000ca2:	881b      	ldrh	r3, [r3, #0]
 8000ca4:	b29b      	uxth	r3, r3
 8000ca6:	f423 7300 	bic.w	r3, r3, #512	; 0x200
 8000caa:	b29a      	uxth	r2, r3
 8000cac:	687b      	ldr	r3, [r7, #4]
 8000cae:	801a      	strh	r2, [r3, #0]
  }
}
 8000cb0:	bf00      	nop
 8000cb2:	370c      	adds	r7, #12
 8000cb4:	46bd      	mov	sp, r7
 8000cb6:	bc80      	pop	{r7}
 8000cb8:	4770      	bx	lr
 8000cba:	bf00      	nop

08000cbc <I2C_Send7bitAddress>:
  *     @arg I2C_Direction_Transmitter: Transmitter mode
  *     @arg I2C_Direction_Receiver: Receiver mode
  * @retval None.
  */
void I2C_Send7bitAddress(I2C_TypeDef* I2Cx, uint8_t Address, uint8_t I2C_Direction)
{
 8000cbc:	b480      	push	{r7}
 8000cbe:	b083      	sub	sp, #12
 8000cc0:	af00      	add	r7, sp, #0
 8000cc2:	6078      	str	r0, [r7, #4]
 8000cc4:	460b      	mov	r3, r1
 8000cc6:	70fb      	strb	r3, [r7, #3]
 8000cc8:	4613      	mov	r3, r2
 8000cca:	70bb      	strb	r3, [r7, #2]
  /* Check the parameters */
  assert_param(IS_I2C_ALL_PERIPH(I2Cx));
  assert_param(IS_I2C_DIRECTION(I2C_Direction));
  /* Test on the direction to set/reset the read/write bit */
  if (I2C_Direction != I2C_Direction_Transmitter)
 8000ccc:	78bb      	ldrb	r3, [r7, #2]
 8000cce:	2b00      	cmp	r3, #0
 8000cd0:	d004      	beq.n	8000cdc <I2C_Send7bitAddress+0x20>
  {
    /* Set the address bit0 for read */
    Address |= I2C_OAR1_ADD0;
 8000cd2:	78fb      	ldrb	r3, [r7, #3]
 8000cd4:	f043 0301 	orr.w	r3, r3, #1
 8000cd8:	70fb      	strb	r3, [r7, #3]
 8000cda:	e003      	b.n	8000ce4 <I2C_Send7bitAddress+0x28>
  }
  else
  {
    /* Reset the address bit0 for write */
    Address &= (uint8_t)~((uint8_t)I2C_OAR1_ADD0);
 8000cdc:	78fb      	ldrb	r3, [r7, #3]
 8000cde:	f023 0301 	bic.w	r3, r3, #1
 8000ce2:	70fb      	strb	r3, [r7, #3]
  }
  /* Send the address */
  I2Cx->DR = Address;
 8000ce4:	78fb      	ldrb	r3, [r7, #3]
 8000ce6:	b29a      	uxth	r2, r3
 8000ce8:	687b      	ldr	r3, [r7, #4]
 8000cea:	821a      	strh	r2, [r3, #16]
}
 8000cec:	bf00      	nop
 8000cee:	370c      	adds	r7, #12
 8000cf0:	46bd      	mov	sp, r7
 8000cf2:	bc80      	pop	{r7}
 8000cf4:	4770      	bx	lr
 8000cf6:	bf00      	nop

08000cf8 <I2C_SendData>:
  * @param  I2Cx: where x can be 1 or 2 to select the I2C peripheral.
  * @param  Data: Byte to be transmitted.
  * @retval None
  */
void I2C_SendData(I2C_TypeDef* I2Cx, uint8_t Data)
{
 8000cf8:	b480      	push	{r7}
 8000cfa:	b083      	sub	sp, #12
 8000cfc:	af00      	add	r7, sp, #0
 8000cfe:	6078      	str	r0, [r7, #4]
 8000d00:	460b      	mov	r3, r1
 8000d02:	70fb      	strb	r3, [r7, #3]
  /* Check the parameters */
  assert_param(IS_I2C_ALL_PERIPH(I2Cx));
  /* Write in the DR register the data to be sent */
  I2Cx->DR = Data;
 8000d04:	78fb      	ldrb	r3, [r7, #3]
 8000d06:	b29a      	uxth	r2, r3
 8000d08:	687b      	ldr	r3, [r7, #4]
 8000d0a:	821a      	strh	r2, [r3, #16]
}
 8000d0c:	bf00      	nop
 8000d0e:	370c      	adds	r7, #12
 8000d10:	46bd      	mov	sp, r7
 8000d12:	bc80      	pop	{r7}
 8000d14:	4770      	bx	lr
 8000d16:	bf00      	nop

08000d18 <I2C_DMACmd>:
  * @param  NewState: new state of the I2C DMA transfer.
  *   This parameter can be: ENABLE or DISABLE.
  * @retval None
  */
void I2C_DMACmd(I2C_TypeDef* I2Cx, FunctionalState NewState)
{
 8000d18:	b480      	push	{r7}
 8000d1a:	b083      	sub	sp, #12
 8000d1c:	af00      	add	r7, sp, #0
 8000d1e:	6078      	str	r0, [r7, #4]
 8000d20:	460b      	mov	r3, r1
 8000d22:	70fb      	strb	r3, [r7, #3]
  /* Check the parameters */
  assert_param(IS_I2C_ALL_PERIPH(I2Cx));
  assert_param(IS_FUNCTIONAL_STATE(NewState));
  if (NewState != DISABLE)
 8000d24:	78fb      	ldrb	r3, [r7, #3]
 8000d26:	2b00      	cmp	r3, #0
 8000d28:	d008      	beq.n	8000d3c <I2C_DMACmd+0x24>
  {
    /* Enable the selected I2C DMA requests */
    I2Cx->CR2 |= I2C_CR2_DMAEN;
 8000d2a:	687b      	ldr	r3, [r7, #4]
 8000d2c:	889b      	ldrh	r3, [r3, #4]
 8000d2e:	b29b      	uxth	r3, r3
 8000d30:	f443 6300 	orr.w	r3, r3, #2048	; 0x800
 8000d34:	b29a      	uxth	r2, r3
 8000d36:	687b      	ldr	r3, [r7, #4]
 8000d38:	809a      	strh	r2, [r3, #4]
  else
  {
    /* Disable the selected I2C DMA requests */
    I2Cx->CR2 &= (uint16_t)~((uint16_t)I2C_CR2_DMAEN);
  }
}
 8000d3a:	e007      	b.n	8000d4c <I2C_DMACmd+0x34>
    I2Cx->CR2 |= I2C_CR2_DMAEN;
  }
  else
  {
    /* Disable the selected I2C DMA requests */
    I2Cx->CR2 &= (uint16_t)~((uint16_t)I2C_CR2_DMAEN);
 8000d3c:	687b      	ldr	r3, [r7, #4]
 8000d3e:	889b      	ldrh	r3, [r3, #4]
 8000d40:	b29b      	uxth	r3, r3
 8000d42:	f423 6300 	bic.w	r3, r3, #2048	; 0x800
 8000d46:	b29a      	uxth	r2, r3
 8000d48:	687b      	ldr	r3, [r7, #4]
 8000d4a:	809a      	strh	r2, [r3, #4]
  }
}
 8000d4c:	bf00      	nop
 8000d4e:	370c      	adds	r7, #12
 8000d50:	46bd      	mov	sp, r7
 8000d52:	bc80      	pop	{r7}
 8000d54:	4770      	bx	lr
 8000d56:	bf00      	nop

08000d58 <I2C_DMALastTransferCmd>:
  * @param  NewState: new state of the I2C DMA last transfer.
  *   This parameter can be: ENABLE or DISABLE.
  * @retval None
  */
void I2C_DMALastTransferCmd(I2C_TypeDef* I2Cx, FunctionalState NewState)
{
 8000d58:	b480      	push	{r7}
 8000d5a:	b083      	sub	sp, #12
 8000d5c:	af00      	add	r7, sp, #0
 8000d5e:	6078      	str	r0, [r7, #4]
 8000d60:	460b      	mov	r3, r1
 8000d62:	70fb      	strb	r3, [r7, #3]
  /* Check the parameters */
  assert_param(IS_I2C_ALL_PERIPH(I2Cx));
  assert_param(IS_FUNCTIONAL_STATE(NewState));
  if (NewState != DISABLE)
 8000d64:	78fb      	ldrb	r3, [r7, #3]
 8000d66:	2b00      	cmp	r3, #0
 8000d68:	d008      	beq.n	8000d7c <I2C_DMALastTransferCmd+0x24>
  {
    /* Next DMA transfer is the last transfer */
    I2Cx->CR2 |= I2C_CR2_LAST;
 8000d6a:	687b      	ldr	r3, [r7, #4]
 8000d6c:	889b      	ldrh	r3, [r3, #4]
 8000d6e:	b29b      	uxth	r3, r3
 8000d70:	f443 5380 	orr.w	r3, r3, #4096	; 0x1000
 8000d74:	b29a      	uxth	r2, r3
 8000d76:	687b      	ldr	r3, [r7, #4]
 8000d78:	809a      	strh	r2, [r3, #4]
  else
  {
    /* Next DMA transfer is not the last transfer */
    I2Cx->CR2 &= (uint16_t)~((uint16_t)I2C_CR2_LAST);
  }
}
 8000d7a:	e007      	b.n	8000d8c <I2C_DMALastTransferCmd+0x34>
    I2Cx->CR2 |= I2C_CR2_LAST;
  }
  else
  {
    /* Next DMA transfer is not the last transfer */
    I2Cx->CR2 &= (uint16_t)~((uint16_t)I2C_CR2_LAST);
 8000d7c:	687b      	ldr	r3, [r7, #4]
 8000d7e:	889b      	ldrh	r3, [r3, #4]
 8000d80:	b29b      	uxth	r3, r3
 8000d82:	f423 5380 	bic.w	r3, r3, #4096	; 0x1000
 8000d86:	b29a      	uxth	r2, r3
 8000d88:	687b      	ldr	r3, [r7, #4]
 8000d8a:	809a      	strh	r2, [r3, #4]
  }
}
 8000d8c:	bf00      	nop
 8000d8e:	370c      	adds	r7, #12
 8000d90:	46bd      	mov	sp, r7
 8000d92:	bc80      	pop	{r7}
 8000d94:	4770      	bx	lr
 8000d96:	bf00      	nop

08000d98 <I2C_CheckEvent>:
  * @retval An ErrorStatus enumeration value:
  * - SUCCESS: Last event is equal to the I2C_EVENT
  * - ERROR: Last event is different from the I2C_EVENT
  */
ErrorStatus I2C_CheckEvent(I2C_TypeDef* I2Cx, uint32_t I2C_EVENT)
{
 8000d98:	b480      	push	{r7}
 8000d9a:	b087      	sub	sp, #28
 8000d9c:	af00      	add	r7, sp, #0
 8000d9e:	6078      	str	r0, [r7, #4]
 8000da0:	6039      	str	r1, [r7, #0]
  uint32_t lastevent = 0;
 8000da2:	2300      	movs	r3, #0
 8000da4:	613b      	str	r3, [r7, #16]
  uint32_t flag1 = 0, flag2 = 0;
 8000da6:	2300      	movs	r3, #0
 8000da8:	60fb      	str	r3, [r7, #12]
 8000daa:	2300      	movs	r3, #0
 8000dac:	60bb      	str	r3, [r7, #8]
  ErrorStatus status = ERROR;
 8000dae:	2300      	movs	r3, #0
 8000db0:	75fb      	strb	r3, [r7, #23]
  /* Check the parameters */
  assert_param(IS_I2C_ALL_PERIPH(I2Cx));
  assert_param(IS_I2C_EVENT(I2C_EVENT));

  /* Read the I2Cx status register */
  flag1 = I2Cx->SR1;
 8000db2:	687b      	ldr	r3, [r7, #4]
 8000db4:	8a9b      	ldrh	r3, [r3, #20]
 8000db6:	b29b      	uxth	r3, r3
 8000db8:	60fb      	str	r3, [r7, #12]
  flag2 = I2Cx->SR2;
 8000dba:	687b      	ldr	r3, [r7, #4]
 8000dbc:	8b1b      	ldrh	r3, [r3, #24]
 8000dbe:	b29b      	uxth	r3, r3
 8000dc0:	60bb      	str	r3, [r7, #8]
  flag2 = flag2 << 16;
 8000dc2:	68bb      	ldr	r3, [r7, #8]
 8000dc4:	041b      	lsls	r3, r3, #16
 8000dc6:	60bb      	str	r3, [r7, #8]

  /* Get the last event value from I2C status register */
  lastevent = (flag1 | flag2) & FLAG_MASK;
 8000dc8:	68fa      	ldr	r2, [r7, #12]
 8000dca:	68bb      	ldr	r3, [r7, #8]
 8000dcc:	4313      	orrs	r3, r2
 8000dce:	f023 437f 	bic.w	r3, r3, #4278190080	; 0xff000000
 8000dd2:	613b      	str	r3, [r7, #16]

  /* Check whether the last event contains the I2C_EVENT */
  if ((lastevent & I2C_EVENT) == I2C_EVENT)
 8000dd4:	693a      	ldr	r2, [r7, #16]
 8000dd6:	683b      	ldr	r3, [r7, #0]
 8000dd8:	401a      	ands	r2, r3
 8000dda:	683b      	ldr	r3, [r7, #0]
 8000ddc:	429a      	cmp	r2, r3
 8000dde:	d102      	bne.n	8000de6 <I2C_CheckEvent+0x4e>
  {
    /* SUCCESS: last event is equal to I2C_EVENT */
    status = SUCCESS;
 8000de0:	2301      	movs	r3, #1
 8000de2:	75fb      	strb	r3, [r7, #23]
 8000de4:	e001      	b.n	8000dea <I2C_CheckEvent+0x52>
  }
  else
  {
    /* ERROR: last event is different from I2C_EVENT */
    status = ERROR;
 8000de6:	2300      	movs	r3, #0
 8000de8:	75fb      	strb	r3, [r7, #23]
  }
  /* Return status */
  return status;
 8000dea:	7dfb      	ldrb	r3, [r7, #23]
}
 8000dec:	4618      	mov	r0, r3
 8000dee:	371c      	adds	r7, #28
 8000df0:	46bd      	mov	sp, r7
 8000df2:	bc80      	pop	{r7}
 8000df4:	4770      	bx	lr
 8000df6:	bf00      	nop

08000df8 <I2C_GetFlagStatus>:
  *   Address matched flag (Slave mode)"ENDAD"
  *     @arg I2C_FLAG_SB: Start bit flag (Master mode)
  * @retval The new state of I2C_FLAG (SET or RESET).
  */
FlagStatus I2C_GetFlagStatus(I2C_TypeDef* I2Cx, uint32_t I2C_FLAG)
{
 8000df8:	b480      	push	{r7}
 8000dfa:	b087      	sub	sp, #28
 8000dfc:	af00      	add	r7, sp, #0
 8000dfe:	6078      	str	r0, [r7, #4]
 8000e00:	6039      	str	r1, [r7, #0]
  FlagStatus bitstatus = RESET;
 8000e02:	2300      	movs	r3, #0
 8000e04:	75fb      	strb	r3, [r7, #23]
  __IO uint32_t i2creg = 0, i2cxbase = 0;
 8000e06:	2300      	movs	r3, #0
 8000e08:	613b      	str	r3, [r7, #16]
 8000e0a:	2300      	movs	r3, #0
 8000e0c:	60fb      	str	r3, [r7, #12]
  /* Check the parameters */
  assert_param(IS_I2C_ALL_PERIPH(I2Cx));
  assert_param(IS_I2C_GET_FLAG(I2C_FLAG));

  /* Get the I2Cx peripheral base address */
  i2cxbase = (uint32_t)I2Cx;
 8000e0e:	687b      	ldr	r3, [r7, #4]
 8000e10:	60fb      	str	r3, [r7, #12]
  
  /* Read flag register index */
  i2creg = I2C_FLAG >> 28;
 8000e12:	683b      	ldr	r3, [r7, #0]
 8000e14:	0f1b      	lsrs	r3, r3, #28
 8000e16:	613b      	str	r3, [r7, #16]
  
  /* Get bit[23:0] of the flag */
  I2C_FLAG &= FLAG_MASK;
 8000e18:	683b      	ldr	r3, [r7, #0]
 8000e1a:	f023 437f 	bic.w	r3, r3, #4278190080	; 0xff000000
 8000e1e:	603b      	str	r3, [r7, #0]
  
  if(i2creg != 0)
 8000e20:	693b      	ldr	r3, [r7, #16]
 8000e22:	2b00      	cmp	r3, #0
 8000e24:	d003      	beq.n	8000e2e <I2C_GetFlagStatus+0x36>
  {
    /* Get the I2Cx SR1 register address */
    i2cxbase += 0x14;
 8000e26:	68fb      	ldr	r3, [r7, #12]
 8000e28:	3314      	adds	r3, #20
 8000e2a:	60fb      	str	r3, [r7, #12]
 8000e2c:	e005      	b.n	8000e3a <I2C_GetFlagStatus+0x42>
  }
  else
  {
    /* Flag in I2Cx SR2 Register */
    I2C_FLAG = (uint32_t)(I2C_FLAG >> 16);
 8000e2e:	683b      	ldr	r3, [r7, #0]
 8000e30:	0c1b      	lsrs	r3, r3, #16
 8000e32:	603b      	str	r3, [r7, #0]
    /* Get the I2Cx SR2 register address */
    i2cxbase += 0x18;
 8000e34:	68fb      	ldr	r3, [r7, #12]
 8000e36:	3318      	adds	r3, #24
 8000e38:	60fb      	str	r3, [r7, #12]
  }
  
  if(((*(__IO uint32_t *)i2cxbase) & I2C_FLAG) != (uint32_t)RESET)
 8000e3a:	68fb      	ldr	r3, [r7, #12]
 8000e3c:	681a      	ldr	r2, [r3, #0]
 8000e3e:	683b      	ldr	r3, [r7, #0]
 8000e40:	4013      	ands	r3, r2
 8000e42:	2b00      	cmp	r3, #0
 8000e44:	d002      	beq.n	8000e4c <I2C_GetFlagStatus+0x54>
  {
    /* I2C_FLAG is set */
    bitstatus = SET;
 8000e46:	2301      	movs	r3, #1
 8000e48:	75fb      	strb	r3, [r7, #23]
 8000e4a:	e001      	b.n	8000e50 <I2C_GetFlagStatus+0x58>
  }
  else
  {
    /* I2C_FLAG is reset */
    bitstatus = RESET;
 8000e4c:	2300      	movs	r3, #0
 8000e4e:	75fb      	strb	r3, [r7, #23]
  }
  
  /* Return the I2C_FLAG status */
  return  bitstatus;
 8000e50:	7dfb      	ldrb	r3, [r7, #23]
}
 8000e52:	4618      	mov	r0, r3
 8000e54:	371c      	adds	r7, #28
 8000e56:	46bd      	mov	sp, r7
 8000e58:	bc80      	pop	{r7}
 8000e5a:	4770      	bx	lr

08000e5c <RCC_GetClocksFreq>:
  *           configuration based on this function will be incorrect.
  *    
  * @retval None
  */
void RCC_GetClocksFreq(RCC_ClocksTypeDef* RCC_Clocks)
{
 8000e5c:	b480      	push	{r7}
 8000e5e:	b089      	sub	sp, #36	; 0x24
 8000e60:	af00      	add	r7, sp, #0
 8000e62:	6078      	str	r0, [r7, #4]
  uint32_t tmp = 0, pllmul = 0, plldiv = 0, pllsource = 0, presc = 0, msirange = 0;
 8000e64:	2300      	movs	r3, #0
 8000e66:	61fb      	str	r3, [r7, #28]
 8000e68:	2300      	movs	r3, #0
 8000e6a:	61bb      	str	r3, [r7, #24]
 8000e6c:	2300      	movs	r3, #0
 8000e6e:	617b      	str	r3, [r7, #20]
 8000e70:	2300      	movs	r3, #0
 8000e72:	613b      	str	r3, [r7, #16]
 8000e74:	2300      	movs	r3, #0
 8000e76:	60fb      	str	r3, [r7, #12]
 8000e78:	2300      	movs	r3, #0
 8000e7a:	60bb      	str	r3, [r7, #8]

  /* Get SYSCLK source -------------------------------------------------------*/
  tmp = RCC->CFGR & RCC_CFGR_SWS;
 8000e7c:	4b5f      	ldr	r3, [pc, #380]	; (8000ffc <RCC_GetClocksFreq+0x1a0>)
 8000e7e:	689b      	ldr	r3, [r3, #8]
 8000e80:	f003 030c 	and.w	r3, r3, #12
 8000e84:	61fb      	str	r3, [r7, #28]
  
  switch (tmp)
 8000e86:	69fb      	ldr	r3, [r7, #28]
 8000e88:	2b0c      	cmp	r3, #12
 8000e8a:	d865      	bhi.n	8000f58 <RCC_GetClocksFreq+0xfc>
 8000e8c:	a201      	add	r2, pc, #4	; (adr r2, 8000e94 <RCC_GetClocksFreq+0x38>)
 8000e8e:	f852 f023 	ldr.w	pc, [r2, r3, lsl #2]
 8000e92:	bf00      	nop
 8000e94:	08000ec9 	.word	0x08000ec9
 8000e98:	08000f59 	.word	0x08000f59
 8000e9c:	08000f59 	.word	0x08000f59
 8000ea0:	08000f59 	.word	0x08000f59
 8000ea4:	08000ee9 	.word	0x08000ee9
 8000ea8:	08000f59 	.word	0x08000f59
 8000eac:	08000f59 	.word	0x08000f59
 8000eb0:	08000f59 	.word	0x08000f59
 8000eb4:	08000ef1 	.word	0x08000ef1
 8000eb8:	08000f59 	.word	0x08000f59
 8000ebc:	08000f59 	.word	0x08000f59
 8000ec0:	08000f59 	.word	0x08000f59
 8000ec4:	08000ef9 	.word	0x08000ef9
  {
    case 0x00:  /* MSI used as system clock */
      msirange = (RCC->ICSCR & RCC_ICSCR_MSIRANGE ) >> 13;
 8000ec8:	4b4c      	ldr	r3, [pc, #304]	; (8000ffc <RCC_GetClocksFreq+0x1a0>)
 8000eca:	685b      	ldr	r3, [r3, #4]
 8000ecc:	f403 4360 	and.w	r3, r3, #57344	; 0xe000
 8000ed0:	0b5b      	lsrs	r3, r3, #13
 8000ed2:	60bb      	str	r3, [r7, #8]
      RCC_Clocks->SYSCLK_Frequency = (32768 * (1 << (msirange + 1)));
 8000ed4:	68bb      	ldr	r3, [r7, #8]
 8000ed6:	3301      	adds	r3, #1
 8000ed8:	f44f 4200 	mov.w	r2, #32768	; 0x8000
 8000edc:	fa02 f303 	lsl.w	r3, r2, r3
 8000ee0:	461a      	mov	r2, r3
 8000ee2:	687b      	ldr	r3, [r7, #4]
 8000ee4:	601a      	str	r2, [r3, #0]
      break;
 8000ee6:	e047      	b.n	8000f78 <RCC_GetClocksFreq+0x11c>
    case 0x04:  /* HSI used as system clock */
      RCC_Clocks->SYSCLK_Frequency = HSI_VALUE;
 8000ee8:	687b      	ldr	r3, [r7, #4]
 8000eea:	4a45      	ldr	r2, [pc, #276]	; (8001000 <RCC_GetClocksFreq+0x1a4>)
 8000eec:	601a      	str	r2, [r3, #0]
      break;
 8000eee:	e043      	b.n	8000f78 <RCC_GetClocksFreq+0x11c>
    case 0x08:  /* HSE used as system clock */
      RCC_Clocks->SYSCLK_Frequency = HSE_VALUE;
 8000ef0:	687b      	ldr	r3, [r7, #4]
 8000ef2:	4a44      	ldr	r2, [pc, #272]	; (8001004 <RCC_GetClocksFreq+0x1a8>)
 8000ef4:	601a      	str	r2, [r3, #0]
      break;
 8000ef6:	e03f      	b.n	8000f78 <RCC_GetClocksFreq+0x11c>
    case 0x0C:  /* PLL used as system clock */
      /* Get PLL clock source and multiplication factor ----------------------*/
      pllmul = RCC->CFGR & RCC_CFGR_PLLMUL;
 8000ef8:	4b40      	ldr	r3, [pc, #256]	; (8000ffc <RCC_GetClocksFreq+0x1a0>)
 8000efa:	689b      	ldr	r3, [r3, #8]
 8000efc:	f403 1370 	and.w	r3, r3, #3932160	; 0x3c0000
 8000f00:	61bb      	str	r3, [r7, #24]
      plldiv = RCC->CFGR & RCC_CFGR_PLLDIV;
 8000f02:	4b3e      	ldr	r3, [pc, #248]	; (8000ffc <RCC_GetClocksFreq+0x1a0>)
 8000f04:	689b      	ldr	r3, [r3, #8]
 8000f06:	f403 0340 	and.w	r3, r3, #12582912	; 0xc00000
 8000f0a:	617b      	str	r3, [r7, #20]
      pllmul = PLLMulTable[(pllmul >> 18)];
 8000f0c:	69bb      	ldr	r3, [r7, #24]
 8000f0e:	0c9b      	lsrs	r3, r3, #18
 8000f10:	4a3d      	ldr	r2, [pc, #244]	; (8001008 <RCC_GetClocksFreq+0x1ac>)
 8000f12:	5cd3      	ldrb	r3, [r2, r3]
 8000f14:	b2db      	uxtb	r3, r3
 8000f16:	61bb      	str	r3, [r7, #24]
      plldiv = (plldiv >> 22) + 1;
 8000f18:	697b      	ldr	r3, [r7, #20]
 8000f1a:	0d9b      	lsrs	r3, r3, #22
 8000f1c:	3301      	adds	r3, #1
 8000f1e:	617b      	str	r3, [r7, #20]
      
      pllsource = RCC->CFGR & RCC_CFGR_PLLSRC;
 8000f20:	4b36      	ldr	r3, [pc, #216]	; (8000ffc <RCC_GetClocksFreq+0x1a0>)
 8000f22:	689b      	ldr	r3, [r3, #8]
 8000f24:	f403 3380 	and.w	r3, r3, #65536	; 0x10000
 8000f28:	613b      	str	r3, [r7, #16]

      if (pllsource == 0x00)
 8000f2a:	693b      	ldr	r3, [r7, #16]
 8000f2c:	2b00      	cmp	r3, #0
 8000f2e:	d109      	bne.n	8000f44 <RCC_GetClocksFreq+0xe8>
      {
        /* HSI oscillator clock selected as PLL clock source */
        RCC_Clocks->SYSCLK_Frequency = (((HSI_VALUE) * pllmul) / plldiv);
 8000f30:	69bb      	ldr	r3, [r7, #24]
 8000f32:	4a33      	ldr	r2, [pc, #204]	; (8001000 <RCC_GetClocksFreq+0x1a4>)
 8000f34:	fb02 f203 	mul.w	r2, r2, r3
 8000f38:	697b      	ldr	r3, [r7, #20]
 8000f3a:	fbb2 f2f3 	udiv	r2, r2, r3
 8000f3e:	687b      	ldr	r3, [r7, #4]
 8000f40:	601a      	str	r2, [r3, #0]
      else
      {
        /* HSE selected as PLL clock source */
        RCC_Clocks->SYSCLK_Frequency = (((HSE_VALUE) * pllmul) / plldiv);
      }
      break;
 8000f42:	e019      	b.n	8000f78 <RCC_GetClocksFreq+0x11c>
        RCC_Clocks->SYSCLK_Frequency = (((HSI_VALUE) * pllmul) / plldiv);
      }
      else
      {
        /* HSE selected as PLL clock source */
        RCC_Clocks->SYSCLK_Frequency = (((HSE_VALUE) * pllmul) / plldiv);
 8000f44:	69bb      	ldr	r3, [r7, #24]
 8000f46:	4a2f      	ldr	r2, [pc, #188]	; (8001004 <RCC_GetClocksFreq+0x1a8>)
 8000f48:	fb02 f203 	mul.w	r2, r2, r3
 8000f4c:	697b      	ldr	r3, [r7, #20]
 8000f4e:	fbb2 f2f3 	udiv	r2, r2, r3
 8000f52:	687b      	ldr	r3, [r7, #4]
 8000f54:	601a      	str	r2, [r3, #0]
      }
      break;
 8000f56:	e00f      	b.n	8000f78 <RCC_GetClocksFreq+0x11c>
    default: /* MSI used as system clock */
      msirange = (RCC->ICSCR & RCC_ICSCR_MSIRANGE ) >> 13;
 8000f58:	4b28      	ldr	r3, [pc, #160]	; (8000ffc <RCC_GetClocksFreq+0x1a0>)
 8000f5a:	685b      	ldr	r3, [r3, #4]
 8000f5c:	f403 4360 	and.w	r3, r3, #57344	; 0xe000
 8000f60:	0b5b      	lsrs	r3, r3, #13
 8000f62:	60bb      	str	r3, [r7, #8]
      RCC_Clocks->SYSCLK_Frequency = (32768 * (1 << (msirange + 1)));
 8000f64:	68bb      	ldr	r3, [r7, #8]
 8000f66:	3301      	adds	r3, #1
 8000f68:	f44f 4200 	mov.w	r2, #32768	; 0x8000
 8000f6c:	fa02 f303 	lsl.w	r3, r2, r3
 8000f70:	461a      	mov	r2, r3
 8000f72:	687b      	ldr	r3, [r7, #4]
 8000f74:	601a      	str	r2, [r3, #0]
      break;
 8000f76:	bf00      	nop
  }
  /* Compute HCLK, PCLK1, PCLK2 and ADCCLK clocks frequencies ----------------*/
  /* Get HCLK prescaler */
  tmp = RCC->CFGR & RCC_CFGR_HPRE;
 8000f78:	4b20      	ldr	r3, [pc, #128]	; (8000ffc <RCC_GetClocksFreq+0x1a0>)
 8000f7a:	689b      	ldr	r3, [r3, #8]
 8000f7c:	f003 03f0 	and.w	r3, r3, #240	; 0xf0
 8000f80:	61fb      	str	r3, [r7, #28]
  tmp = tmp >> 4;
 8000f82:	69fb      	ldr	r3, [r7, #28]
 8000f84:	091b      	lsrs	r3, r3, #4
 8000f86:	61fb      	str	r3, [r7, #28]
  presc = APBAHBPrescTable[tmp]; 
 8000f88:	4a20      	ldr	r2, [pc, #128]	; (800100c <RCC_GetClocksFreq+0x1b0>)
 8000f8a:	69fb      	ldr	r3, [r7, #28]
 8000f8c:	4413      	add	r3, r2
 8000f8e:	781b      	ldrb	r3, [r3, #0]
 8000f90:	b2db      	uxtb	r3, r3
 8000f92:	60fb      	str	r3, [r7, #12]
  /* HCLK clock frequency */
  RCC_Clocks->HCLK_Frequency = RCC_Clocks->SYSCLK_Frequency >> presc;
 8000f94:	687b      	ldr	r3, [r7, #4]
 8000f96:	681a      	ldr	r2, [r3, #0]
 8000f98:	68fb      	ldr	r3, [r7, #12]
 8000f9a:	40da      	lsrs	r2, r3
 8000f9c:	687b      	ldr	r3, [r7, #4]
 8000f9e:	605a      	str	r2, [r3, #4]

  /* Get PCLK1 prescaler */
  tmp = RCC->CFGR & RCC_CFGR_PPRE1;
 8000fa0:	4b16      	ldr	r3, [pc, #88]	; (8000ffc <RCC_GetClocksFreq+0x1a0>)
 8000fa2:	689b      	ldr	r3, [r3, #8]
 8000fa4:	f403 63e0 	and.w	r3, r3, #1792	; 0x700
 8000fa8:	61fb      	str	r3, [r7, #28]
  tmp = tmp >> 8;
 8000faa:	69fb      	ldr	r3, [r7, #28]
 8000fac:	0a1b      	lsrs	r3, r3, #8
 8000fae:	61fb      	str	r3, [r7, #28]
  presc = APBAHBPrescTable[tmp];
 8000fb0:	4a16      	ldr	r2, [pc, #88]	; (800100c <RCC_GetClocksFreq+0x1b0>)
 8000fb2:	69fb      	ldr	r3, [r7, #28]
 8000fb4:	4413      	add	r3, r2
 8000fb6:	781b      	ldrb	r3, [r3, #0]
 8000fb8:	b2db      	uxtb	r3, r3
 8000fba:	60fb      	str	r3, [r7, #12]
  /* PCLK1 clock frequency */
  RCC_Clocks->PCLK1_Frequency = RCC_Clocks->HCLK_Frequency >> presc;
 8000fbc:	687b      	ldr	r3, [r7, #4]
 8000fbe:	685a      	ldr	r2, [r3, #4]
 8000fc0:	68fb      	ldr	r3, [r7, #12]
 8000fc2:	40da      	lsrs	r2, r3
 8000fc4:	687b      	ldr	r3, [r7, #4]
 8000fc6:	609a      	str	r2, [r3, #8]

  /* Get PCLK2 prescaler */
  tmp = RCC->CFGR & RCC_CFGR_PPRE2;
 8000fc8:	4b0c      	ldr	r3, [pc, #48]	; (8000ffc <RCC_GetClocksFreq+0x1a0>)
 8000fca:	689b      	ldr	r3, [r3, #8]
 8000fcc:	f403 5360 	and.w	r3, r3, #14336	; 0x3800
 8000fd0:	61fb      	str	r3, [r7, #28]
  tmp = tmp >> 11;
 8000fd2:	69fb      	ldr	r3, [r7, #28]
 8000fd4:	0adb      	lsrs	r3, r3, #11
 8000fd6:	61fb      	str	r3, [r7, #28]
  presc = APBAHBPrescTable[tmp];
 8000fd8:	4a0c      	ldr	r2, [pc, #48]	; (800100c <RCC_GetClocksFreq+0x1b0>)
 8000fda:	69fb      	ldr	r3, [r7, #28]
 8000fdc:	4413      	add	r3, r2
 8000fde:	781b      	ldrb	r3, [r3, #0]
 8000fe0:	b2db      	uxtb	r3, r3
 8000fe2:	60fb      	str	r3, [r7, #12]
  /* PCLK2 clock frequency */
  RCC_Clocks->PCLK2_Frequency = RCC_Clocks->HCLK_Frequency >> presc;
 8000fe4:	687b      	ldr	r3, [r7, #4]
 8000fe6:	685a      	ldr	r2, [r3, #4]
 8000fe8:	68fb      	ldr	r3, [r7, #12]
 8000fea:	40da      	lsrs	r2, r3
 8000fec:	687b      	ldr	r3, [r7, #4]
 8000fee:	60da      	str	r2, [r3, #12]
}
 8000ff0:	bf00      	nop
 8000ff2:	3724      	adds	r7, #36	; 0x24
 8000ff4:	46bd      	mov	sp, r7
 8000ff6:	bc80      	pop	{r7}
 8000ff8:	4770      	bx	lr
 8000ffa:	bf00      	nop
 8000ffc:	40023800 	.word	0x40023800
 8001000:	00f42400 	.word	0x00f42400
 8001004:	007a1200 	.word	0x007a1200
 8001008:	20000000 	.word	0x20000000
 800100c:	2000000c 	.word	0x2000000c

08001010 <RCC_AHBPeriphClockCmd>:
  * @param  NewState: new state of the specified peripheral clock.
  *         This parameter can be: ENABLE or DISABLE.
  * @retval None
  */
void RCC_AHBPeriphClockCmd(uint32_t RCC_AHBPeriph, FunctionalState NewState)
{
 8001010:	b480      	push	{r7}
 8001012:	b083      	sub	sp, #12
 8001014:	af00      	add	r7, sp, #0
 8001016:	6078      	str	r0, [r7, #4]
 8001018:	460b      	mov	r3, r1
 800101a:	70fb      	strb	r3, [r7, #3]
  /* Check the parameters */
  assert_param(IS_RCC_AHB_PERIPH(RCC_AHBPeriph));
  assert_param(IS_FUNCTIONAL_STATE(NewState));
  
  if (NewState != DISABLE)
 800101c:	78fb      	ldrb	r3, [r7, #3]
 800101e:	2b00      	cmp	r3, #0
 8001020:	d006      	beq.n	8001030 <RCC_AHBPeriphClockCmd+0x20>
  {
    RCC->AHBENR |= RCC_AHBPeriph;
 8001022:	4909      	ldr	r1, [pc, #36]	; (8001048 <RCC_AHBPeriphClockCmd+0x38>)
 8001024:	4b08      	ldr	r3, [pc, #32]	; (8001048 <RCC_AHBPeriphClockCmd+0x38>)
 8001026:	69da      	ldr	r2, [r3, #28]
 8001028:	687b      	ldr	r3, [r7, #4]
 800102a:	4313      	orrs	r3, r2
 800102c:	61cb      	str	r3, [r1, #28]
  }
  else
  {
    RCC->AHBENR &= ~RCC_AHBPeriph;
  }
}
 800102e:	e006      	b.n	800103e <RCC_AHBPeriphClockCmd+0x2e>
  {
    RCC->AHBENR |= RCC_AHBPeriph;
  }
  else
  {
    RCC->AHBENR &= ~RCC_AHBPeriph;
 8001030:	4905      	ldr	r1, [pc, #20]	; (8001048 <RCC_AHBPeriphClockCmd+0x38>)
 8001032:	4b05      	ldr	r3, [pc, #20]	; (8001048 <RCC_AHBPeriphClockCmd+0x38>)
 8001034:	69da      	ldr	r2, [r3, #28]
 8001036:	687b      	ldr	r3, [r7, #4]
 8001038:	43db      	mvns	r3, r3
 800103a:	4013      	ands	r3, r2
 800103c:	61cb      	str	r3, [r1, #28]
  }
}
 800103e:	bf00      	nop
 8001040:	370c      	adds	r7, #12
 8001042:	46bd      	mov	sp, r7
 8001044:	bc80      	pop	{r7}
 8001046:	4770      	bx	lr
 8001048:	40023800 	.word	0x40023800

0800104c <RCC_APB2PeriphClockCmd>:
  * @param  NewState: new state of the specified peripheral clock.
  *         This parameter can be: ENABLE or DISABLE.
  * @retval None
  */
void RCC_APB2PeriphClockCmd(uint32_t RCC_APB2Periph, FunctionalState NewState)
{
 800104c:	b480      	push	{r7}
 800104e:	b083      	sub	sp, #12
 8001050:	af00      	add	r7, sp, #0
 8001052:	6078      	str	r0, [r7, #4]
 8001054:	460b      	mov	r3, r1
 8001056:	70fb      	strb	r3, [r7, #3]
  /* Check the parameters */
  assert_param(IS_RCC_APB2_PERIPH(RCC_APB2Periph));
  assert_param(IS_FUNCTIONAL_STATE(NewState));

  if (NewState != DISABLE)
 8001058:	78fb      	ldrb	r3, [r7, #3]
 800105a:	2b00      	cmp	r3, #0
 800105c:	d006      	beq.n	800106c <RCC_APB2PeriphClockCmd+0x20>
  {
    RCC->APB2ENR |= RCC_APB2Periph;
 800105e:	4909      	ldr	r1, [pc, #36]	; (8001084 <RCC_APB2PeriphClockCmd+0x38>)
 8001060:	4b08      	ldr	r3, [pc, #32]	; (8001084 <RCC_APB2PeriphClockCmd+0x38>)
 8001062:	6a1a      	ldr	r2, [r3, #32]
 8001064:	687b      	ldr	r3, [r7, #4]
 8001066:	4313      	orrs	r3, r2
 8001068:	620b      	str	r3, [r1, #32]
  }
  else
  {
    RCC->APB2ENR &= ~RCC_APB2Periph;
  }
}
 800106a:	e006      	b.n	800107a <RCC_APB2PeriphClockCmd+0x2e>
  {
    RCC->APB2ENR |= RCC_APB2Periph;
  }
  else
  {
    RCC->APB2ENR &= ~RCC_APB2Periph;
 800106c:	4905      	ldr	r1, [pc, #20]	; (8001084 <RCC_APB2PeriphClockCmd+0x38>)
 800106e:	4b05      	ldr	r3, [pc, #20]	; (8001084 <RCC_APB2PeriphClockCmd+0x38>)
 8001070:	6a1a      	ldr	r2, [r3, #32]
 8001072:	687b      	ldr	r3, [r7, #4]
 8001074:	43db      	mvns	r3, r3
 8001076:	4013      	ands	r3, r2
 8001078:	620b      	str	r3, [r1, #32]
  }
}
 800107a:	bf00      	nop
 800107c:	370c      	adds	r7, #12
 800107e:	46bd      	mov	sp, r7
 8001080:	bc80      	pop	{r7}
 8001082:	4770      	bx	lr
 8001084:	40023800 	.word	0x40023800

08001088 <RCC_APB1PeriphClockCmd>:
  * @param  NewState: new state of the specified peripheral clock.
  *         This parameter can be: ENABLE or DISABLE.
  * @retval None
  */
void RCC_APB1PeriphClockCmd(uint32_t RCC_APB1Periph, FunctionalState NewState)
{
 8001088:	b480      	push	{r7}
 800108a:	b083      	sub	sp, #12
 800108c:	af00      	add	r7, sp, #0
 800108e:	6078      	str	r0, [r7, #4]
 8001090:	460b      	mov	r3, r1
 8001092:	70fb      	strb	r3, [r7, #3]
  /* Check the parameters */
  assert_param(IS_RCC_APB1_PERIPH(RCC_APB1Periph));
  assert_param(IS_FUNCTIONAL_STATE(NewState));

  if (NewState != DISABLE)
 8001094:	78fb      	ldrb	r3, [r7, #3]
 8001096:	2b00      	cmp	r3, #0
 8001098:	d006      	beq.n	80010a8 <RCC_APB1PeriphClockCmd+0x20>
  {
    RCC->APB1ENR |= RCC_APB1Periph;
 800109a:	4909      	ldr	r1, [pc, #36]	; (80010c0 <RCC_APB1PeriphClockCmd+0x38>)
 800109c:	4b08      	ldr	r3, [pc, #32]	; (80010c0 <RCC_APB1PeriphClockCmd+0x38>)
 800109e:	6a5a      	ldr	r2, [r3, #36]	; 0x24
 80010a0:	687b      	ldr	r3, [r7, #4]
 80010a2:	4313      	orrs	r3, r2
 80010a4:	624b      	str	r3, [r1, #36]	; 0x24
  }
  else
  {
    RCC->APB1ENR &= ~RCC_APB1Periph;
  }
}
 80010a6:	e006      	b.n	80010b6 <RCC_APB1PeriphClockCmd+0x2e>
  {
    RCC->APB1ENR |= RCC_APB1Periph;
  }
  else
  {
    RCC->APB1ENR &= ~RCC_APB1Periph;
 80010a8:	4905      	ldr	r1, [pc, #20]	; (80010c0 <RCC_APB1PeriphClockCmd+0x38>)
 80010aa:	4b05      	ldr	r3, [pc, #20]	; (80010c0 <RCC_APB1PeriphClockCmd+0x38>)
 80010ac:	6a5a      	ldr	r2, [r3, #36]	; 0x24
 80010ae:	687b      	ldr	r3, [r7, #4]
 80010b0:	43db      	mvns	r3, r3
 80010b2:	4013      	ands	r3, r2
 80010b4:	624b      	str	r3, [r1, #36]	; 0x24
  }
}
 80010b6:	bf00      	nop
 80010b8:	370c      	adds	r7, #12
 80010ba:	46bd      	mov	sp, r7
 80010bc:	bc80      	pop	{r7}
 80010be:	4770      	bx	lr
 80010c0:	40023800 	.word	0x40023800

080010c4 <RCC_APB1PeriphResetCmd>:
  * @param  NewState: new state of the specified peripheral clock.
  *         This parameter can be: ENABLE or DISABLE.
  * @retval None
  */
void RCC_APB1PeriphResetCmd(uint32_t RCC_APB1Periph, FunctionalState NewState)
{
 80010c4:	b480      	push	{r7}
 80010c6:	b083      	sub	sp, #12
 80010c8:	af00      	add	r7, sp, #0
 80010ca:	6078      	str	r0, [r7, #4]
 80010cc:	460b      	mov	r3, r1
 80010ce:	70fb      	strb	r3, [r7, #3]
  /* Check the parameters */
  assert_param(IS_RCC_APB1_PERIPH(RCC_APB1Periph));
  assert_param(IS_FUNCTIONAL_STATE(NewState));

  if (NewState != DISABLE)
 80010d0:	78fb      	ldrb	r3, [r7, #3]
 80010d2:	2b00      	cmp	r3, #0
 80010d4:	d006      	beq.n	80010e4 <RCC_APB1PeriphResetCmd+0x20>
  {
    RCC->APB1RSTR |= RCC_APB1Periph;
 80010d6:	4909      	ldr	r1, [pc, #36]	; (80010fc <RCC_APB1PeriphResetCmd+0x38>)
 80010d8:	4b08      	ldr	r3, [pc, #32]	; (80010fc <RCC_APB1PeriphResetCmd+0x38>)
 80010da:	699a      	ldr	r2, [r3, #24]
 80010dc:	687b      	ldr	r3, [r7, #4]
 80010de:	4313      	orrs	r3, r2
 80010e0:	618b      	str	r3, [r1, #24]
  }
  else
  {
    RCC->APB1RSTR &= ~RCC_APB1Periph;
  }
}
 80010e2:	e006      	b.n	80010f2 <RCC_APB1PeriphResetCmd+0x2e>
  {
    RCC->APB1RSTR |= RCC_APB1Periph;
  }
  else
  {
    RCC->APB1RSTR &= ~RCC_APB1Periph;
 80010e4:	4905      	ldr	r1, [pc, #20]	; (80010fc <RCC_APB1PeriphResetCmd+0x38>)
 80010e6:	4b05      	ldr	r3, [pc, #20]	; (80010fc <RCC_APB1PeriphResetCmd+0x38>)
 80010e8:	699a      	ldr	r2, [r3, #24]
 80010ea:	687b      	ldr	r3, [r7, #4]
 80010ec:	43db      	mvns	r3, r3
 80010ee:	4013      	ands	r3, r2
 80010f0:	618b      	str	r3, [r1, #24]
  }
}
 80010f2:	bf00      	nop
 80010f4:	370c      	adds	r7, #12
 80010f6:	46bd      	mov	sp, r7
 80010f8:	bc80      	pop	{r7}
 80010fa:	4770      	bx	lr
 80010fc:	40023800 	.word	0x40023800

08001100 <SPI_Init>:
  * @param  SPI_InitStruct: pointer to a SPI_InitTypeDef structure that
  *         contains the configuration information for the specified SPI peripheral.
  * @retval None
  */
void SPI_Init(SPI_TypeDef* SPIx, SPI_InitTypeDef* SPI_InitStruct)
{
 8001100:	b480      	push	{r7}
 8001102:	b085      	sub	sp, #20
 8001104:	af00      	add	r7, sp, #0
 8001106:	6078      	str	r0, [r7, #4]
 8001108:	6039      	str	r1, [r7, #0]
  uint16_t tmpreg = 0;
 800110a:	2300      	movs	r3, #0
 800110c:	81fb      	strh	r3, [r7, #14]
  assert_param(IS_SPI_FIRST_BIT(SPI_InitStruct->SPI_FirstBit));
  assert_param(IS_SPI_CRC_POLYNOMIAL(SPI_InitStruct->SPI_CRCPolynomial));

/*---------------------------- SPIx CR1 Configuration ------------------------*/
  /* Get the SPIx CR1 value */
  tmpreg = SPIx->CR1;
 800110e:	687b      	ldr	r3, [r7, #4]
 8001110:	881b      	ldrh	r3, [r3, #0]
 8001112:	81fb      	strh	r3, [r7, #14]
  /* Clear BIDIMode, BIDIOE, RxONLY, SSM, SSI, LSBFirst, BR, MSTR, CPOL and CPHA bits */
  tmpreg &= CR1_CLEAR_MASK;
 8001114:	89fb      	ldrh	r3, [r7, #14]
 8001116:	f403 5341 	and.w	r3, r3, #12352	; 0x3040
 800111a:	81fb      	strh	r3, [r7, #14]
  /* Set SSM, SSI and MSTR bits according to SPI_Mode and SPI_NSS values */
  /* Set LSBFirst bit according to SPI_FirstBit value */
  /* Set BR bits according to SPI_BaudRatePrescaler value */
  /* Set CPOL bit according to SPI_CPOL value */
  /* Set CPHA bit according to SPI_CPHA value */
  tmpreg |= (uint16_t)((uint32_t)SPI_InitStruct->SPI_Direction | SPI_InitStruct->SPI_Mode |
 800111c:	683b      	ldr	r3, [r7, #0]
 800111e:	881a      	ldrh	r2, [r3, #0]
 8001120:	683b      	ldr	r3, [r7, #0]
 8001122:	885b      	ldrh	r3, [r3, #2]
 8001124:	4313      	orrs	r3, r2
 8001126:	b29a      	uxth	r2, r3
                  SPI_InitStruct->SPI_DataSize | SPI_InitStruct->SPI_CPOL |  
 8001128:	683b      	ldr	r3, [r7, #0]
 800112a:	889b      	ldrh	r3, [r3, #4]
  /* Set SSM, SSI and MSTR bits according to SPI_Mode and SPI_NSS values */
  /* Set LSBFirst bit according to SPI_FirstBit value */
  /* Set BR bits according to SPI_BaudRatePrescaler value */
  /* Set CPOL bit according to SPI_CPOL value */
  /* Set CPHA bit according to SPI_CPHA value */
  tmpreg |= (uint16_t)((uint32_t)SPI_InitStruct->SPI_Direction | SPI_InitStruct->SPI_Mode |
 800112c:	4313      	orrs	r3, r2
 800112e:	b29a      	uxth	r2, r3
                  SPI_InitStruct->SPI_DataSize | SPI_InitStruct->SPI_CPOL |  
 8001130:	683b      	ldr	r3, [r7, #0]
 8001132:	88db      	ldrh	r3, [r3, #6]
  /* Set SSM, SSI and MSTR bits according to SPI_Mode and SPI_NSS values */
  /* Set LSBFirst bit according to SPI_FirstBit value */
  /* Set BR bits according to SPI_BaudRatePrescaler value */
  /* Set CPOL bit according to SPI_CPOL value */
  /* Set CPHA bit according to SPI_CPHA value */
  tmpreg |= (uint16_t)((uint32_t)SPI_InitStruct->SPI_Direction | SPI_InitStruct->SPI_Mode |
 8001134:	4313      	orrs	r3, r2
 8001136:	b29a      	uxth	r2, r3
                  SPI_InitStruct->SPI_DataSize | SPI_InitStruct->SPI_CPOL |  
                  SPI_InitStruct->SPI_CPHA | SPI_InitStruct->SPI_NSS |  
 8001138:	683b      	ldr	r3, [r7, #0]
 800113a:	891b      	ldrh	r3, [r3, #8]
  /* Set SSM, SSI and MSTR bits according to SPI_Mode and SPI_NSS values */
  /* Set LSBFirst bit according to SPI_FirstBit value */
  /* Set BR bits according to SPI_BaudRatePrescaler value */
  /* Set CPOL bit according to SPI_CPOL value */
  /* Set CPHA bit according to SPI_CPHA value */
  tmpreg |= (uint16_t)((uint32_t)SPI_InitStruct->SPI_Direction | SPI_InitStruct->SPI_Mode |
 800113c:	4313      	orrs	r3, r2
 800113e:	b29a      	uxth	r2, r3
                  SPI_InitStruct->SPI_DataSize | SPI_InitStruct->SPI_CPOL |  
                  SPI_InitStruct->SPI_CPHA | SPI_InitStruct->SPI_NSS |  
 8001140:	683b      	ldr	r3, [r7, #0]
 8001142:	895b      	ldrh	r3, [r3, #10]
  /* Set SSM, SSI and MSTR bits according to SPI_Mode and SPI_NSS values */
  /* Set LSBFirst bit according to SPI_FirstBit value */
  /* Set BR bits according to SPI_BaudRatePrescaler value */
  /* Set CPOL bit according to SPI_CPOL value */
  /* Set CPHA bit according to SPI_CPHA value */
  tmpreg |= (uint16_t)((uint32_t)SPI_InitStruct->SPI_Direction | SPI_InitStruct->SPI_Mode |
 8001144:	4313      	orrs	r3, r2
 8001146:	b29a      	uxth	r2, r3
                  SPI_InitStruct->SPI_DataSize | SPI_InitStruct->SPI_CPOL |  
                  SPI_InitStruct->SPI_CPHA | SPI_InitStruct->SPI_NSS |  
                  SPI_InitStruct->SPI_BaudRatePrescaler | SPI_InitStruct->SPI_FirstBit);
 8001148:	683b      	ldr	r3, [r7, #0]
 800114a:	899b      	ldrh	r3, [r3, #12]
  /* Set SSM, SSI and MSTR bits according to SPI_Mode and SPI_NSS values */
  /* Set LSBFirst bit according to SPI_FirstBit value */
  /* Set BR bits according to SPI_BaudRatePrescaler value */
  /* Set CPOL bit according to SPI_CPOL value */
  /* Set CPHA bit according to SPI_CPHA value */
  tmpreg |= (uint16_t)((uint32_t)SPI_InitStruct->SPI_Direction | SPI_InitStruct->SPI_Mode |
 800114c:	4313      	orrs	r3, r2
 800114e:	b29a      	uxth	r2, r3
                  SPI_InitStruct->SPI_DataSize | SPI_InitStruct->SPI_CPOL |  
                  SPI_InitStruct->SPI_CPHA | SPI_InitStruct->SPI_NSS |  
                  SPI_InitStruct->SPI_BaudRatePrescaler | SPI_InitStruct->SPI_FirstBit);
 8001150:	683b      	ldr	r3, [r7, #0]
 8001152:	89db      	ldrh	r3, [r3, #14]
  /* Set SSM, SSI and MSTR bits according to SPI_Mode and SPI_NSS values */
  /* Set LSBFirst bit according to SPI_FirstBit value */
  /* Set BR bits according to SPI_BaudRatePrescaler value */
  /* Set CPOL bit according to SPI_CPOL value */
  /* Set CPHA bit according to SPI_CPHA value */
  tmpreg |= (uint16_t)((uint32_t)SPI_InitStruct->SPI_Direction | SPI_InitStruct->SPI_Mode |
 8001154:	4313      	orrs	r3, r2
 8001156:	b29a      	uxth	r2, r3
 8001158:	89fb      	ldrh	r3, [r7, #14]
 800115a:	4313      	orrs	r3, r2
 800115c:	81fb      	strh	r3, [r7, #14]
                  SPI_InitStruct->SPI_DataSize | SPI_InitStruct->SPI_CPOL |  
                  SPI_InitStruct->SPI_CPHA | SPI_InitStruct->SPI_NSS |  
                  SPI_InitStruct->SPI_BaudRatePrescaler | SPI_InitStruct->SPI_FirstBit);
  /* Write to SPIx CR1 */
  SPIx->CR1 = tmpreg;
 800115e:	687b      	ldr	r3, [r7, #4]
 8001160:	89fa      	ldrh	r2, [r7, #14]
 8001162:	801a      	strh	r2, [r3, #0]

  /* Activate the SPI mode (Reset I2SMOD bit in I2SCFGR register) */
  SPIx->I2SCFGR &= (uint16_t)~((uint16_t)SPI_I2SCFGR_I2SMOD);
 8001164:	687b      	ldr	r3, [r7, #4]
 8001166:	8b9b      	ldrh	r3, [r3, #28]
 8001168:	b29b      	uxth	r3, r3
 800116a:	f423 6300 	bic.w	r3, r3, #2048	; 0x800
 800116e:	b29a      	uxth	r2, r3
 8001170:	687b      	ldr	r3, [r7, #4]
 8001172:	839a      	strh	r2, [r3, #28]
/*---------------------------- SPIx CRCPOLY Configuration --------------------*/
  /* Write to SPIx CRCPOLY */
  SPIx->CRCPR = SPI_InitStruct->SPI_CRCPolynomial;
 8001174:	683b      	ldr	r3, [r7, #0]
 8001176:	8a1a      	ldrh	r2, [r3, #16]
 8001178:	687b      	ldr	r3, [r7, #4]
 800117a:	821a      	strh	r2, [r3, #16]
}
 800117c:	bf00      	nop
 800117e:	3714      	adds	r7, #20
 8001180:	46bd      	mov	sp, r7
 8001182:	bc80      	pop	{r7}
 8001184:	4770      	bx	lr
 8001186:	bf00      	nop

08001188 <SPI_Cmd>:
  * @param  NewState: new state of the SPIx peripheral. 
  *   This parameter can be: ENABLE or DISABLE.
  * @retval None
  */
void SPI_Cmd(SPI_TypeDef* SPIx, FunctionalState NewState)
{
 8001188:	b480      	push	{r7}
 800118a:	b083      	sub	sp, #12
 800118c:	af00      	add	r7, sp, #0
 800118e:	6078      	str	r0, [r7, #4]
 8001190:	460b      	mov	r3, r1
 8001192:	70fb      	strb	r3, [r7, #3]
  /* Check the parameters */
  assert_param(IS_SPI_ALL_PERIPH(SPIx));
  assert_param(IS_FUNCTIONAL_STATE(NewState));
  if (NewState != DISABLE)
 8001194:	78fb      	ldrb	r3, [r7, #3]
 8001196:	2b00      	cmp	r3, #0
 8001198:	d008      	beq.n	80011ac <SPI_Cmd+0x24>
  {
    /* Enable the selected SPI peripheral */
    SPIx->CR1 |= SPI_CR1_SPE;
 800119a:	687b      	ldr	r3, [r7, #4]
 800119c:	881b      	ldrh	r3, [r3, #0]
 800119e:	b29b      	uxth	r3, r3
 80011a0:	f043 0340 	orr.w	r3, r3, #64	; 0x40
 80011a4:	b29a      	uxth	r2, r3
 80011a6:	687b      	ldr	r3, [r7, #4]
 80011a8:	801a      	strh	r2, [r3, #0]
  else
  {
    /* Disable the selected SPI peripheral */
    SPIx->CR1 &= (uint16_t)~((uint16_t)SPI_CR1_SPE);
  }
}
 80011aa:	e007      	b.n	80011bc <SPI_Cmd+0x34>
    SPIx->CR1 |= SPI_CR1_SPE;
  }
  else
  {
    /* Disable the selected SPI peripheral */
    SPIx->CR1 &= (uint16_t)~((uint16_t)SPI_CR1_SPE);
 80011ac:	687b      	ldr	r3, [r7, #4]
 80011ae:	881b      	ldrh	r3, [r3, #0]
 80011b0:	b29b      	uxth	r3, r3
 80011b2:	f023 0340 	bic.w	r3, r3, #64	; 0x40
 80011b6:	b29a      	uxth	r2, r3
 80011b8:	687b      	ldr	r3, [r7, #4]
 80011ba:	801a      	strh	r2, [r3, #0]
  }
}
 80011bc:	bf00      	nop
 80011be:	370c      	adds	r7, #12
 80011c0:	46bd      	mov	sp, r7
 80011c2:	bc80      	pop	{r7}
 80011c4:	4770      	bx	lr
 80011c6:	bf00      	nop

080011c8 <SPI_I2S_GetFlagStatus>:
  *     @arg I2S_FLAG_UDR: Underrun Error flag.
  *     @arg I2S_FLAG_CHSIDE: Channel Side flag.
  * @retval The new state of SPI_I2S_FLAG (SET or RESET).
  */
FlagStatus SPI_I2S_GetFlagStatus(SPI_TypeDef* SPIx, uint16_t SPI_I2S_FLAG)
{
 80011c8:	b480      	push	{r7}
 80011ca:	b085      	sub	sp, #20
 80011cc:	af00      	add	r7, sp, #0
 80011ce:	6078      	str	r0, [r7, #4]
 80011d0:	460b      	mov	r3, r1
 80011d2:	807b      	strh	r3, [r7, #2]
  FlagStatus bitstatus = RESET;
 80011d4:	2300      	movs	r3, #0
 80011d6:	73fb      	strb	r3, [r7, #15]
  /* Check the parameters */
  assert_param(IS_SPI_ALL_PERIPH(SPIx));
  assert_param(IS_SPI_I2S_GET_FLAG(SPI_I2S_FLAG));
  
  /* Check the status of the specified SPI flag */
  if ((SPIx->SR & SPI_I2S_FLAG) != (uint16_t)RESET)
 80011d8:	687b      	ldr	r3, [r7, #4]
 80011da:	891b      	ldrh	r3, [r3, #8]
 80011dc:	b29a      	uxth	r2, r3
 80011de:	887b      	ldrh	r3, [r7, #2]
 80011e0:	4013      	ands	r3, r2
 80011e2:	b29b      	uxth	r3, r3
 80011e4:	2b00      	cmp	r3, #0
 80011e6:	d002      	beq.n	80011ee <SPI_I2S_GetFlagStatus+0x26>
  {
    /* SPI_I2S_FLAG is set */
    bitstatus = SET;
 80011e8:	2301      	movs	r3, #1
 80011ea:	73fb      	strb	r3, [r7, #15]
 80011ec:	e001      	b.n	80011f2 <SPI_I2S_GetFlagStatus+0x2a>
  }
  else
  {
    /* SPI_I2S_FLAG is reset */
    bitstatus = RESET;
 80011ee:	2300      	movs	r3, #0
 80011f0:	73fb      	strb	r3, [r7, #15]
  }
  /* Return the SPI_I2S_FLAG status */
  return  bitstatus;
 80011f2:	7bfb      	ldrb	r3, [r7, #15]
}
 80011f4:	4618      	mov	r0, r3
 80011f6:	3714      	adds	r7, #20
 80011f8:	46bd      	mov	sp, r7
 80011fa:	bc80      	pop	{r7}
 80011fc:	4770      	bx	lr
 80011fe:	bf00      	nop

08001200 <TIM_GetITStatus>:
  * @note TIM10 and TIM11 can have only update interrupt or TIM_FLAG_CC1
  *     interrupt      
  * @retval The new state of the TIM_IT(SET or RESET).
  */
ITStatus TIM_GetITStatus(TIM_TypeDef* TIMx, uint16_t TIM_IT)
{
 8001200:	b480      	push	{r7}
 8001202:	b085      	sub	sp, #20
 8001204:	af00      	add	r7, sp, #0
 8001206:	6078      	str	r0, [r7, #4]
 8001208:	460b      	mov	r3, r1
 800120a:	807b      	strh	r3, [r7, #2]
  ITStatus bitstatus = RESET;  
 800120c:	2300      	movs	r3, #0
 800120e:	73fb      	strb	r3, [r7, #15]
  uint16_t itstatus = 0x0, itenable = 0x0;
 8001210:	2300      	movs	r3, #0
 8001212:	81bb      	strh	r3, [r7, #12]
 8001214:	2300      	movs	r3, #0
 8001216:	817b      	strh	r3, [r7, #10]
  
  /* Check the parameters */
  assert_param(IS_TIM_ALL_PERIPH(TIMx));
  assert_param(IS_TIM_GET_IT(TIM_IT));
   
  itstatus = TIMx->SR & TIM_IT;
 8001218:	687b      	ldr	r3, [r7, #4]
 800121a:	8a1b      	ldrh	r3, [r3, #16]
 800121c:	b29a      	uxth	r2, r3
 800121e:	887b      	ldrh	r3, [r7, #2]
 8001220:	4013      	ands	r3, r2
 8001222:	81bb      	strh	r3, [r7, #12]
  
  itenable = TIMx->DIER & TIM_IT;
 8001224:	687b      	ldr	r3, [r7, #4]
 8001226:	899b      	ldrh	r3, [r3, #12]
 8001228:	b29a      	uxth	r2, r3
 800122a:	887b      	ldrh	r3, [r7, #2]
 800122c:	4013      	ands	r3, r2
 800122e:	817b      	strh	r3, [r7, #10]
  if ((itstatus != (uint16_t)RESET) && (itenable != (uint16_t)RESET))
 8001230:	89bb      	ldrh	r3, [r7, #12]
 8001232:	2b00      	cmp	r3, #0
 8001234:	d005      	beq.n	8001242 <TIM_GetITStatus+0x42>
 8001236:	897b      	ldrh	r3, [r7, #10]
 8001238:	2b00      	cmp	r3, #0
 800123a:	d002      	beq.n	8001242 <TIM_GetITStatus+0x42>
  {
    bitstatus = SET;
 800123c:	2301      	movs	r3, #1
 800123e:	73fb      	strb	r3, [r7, #15]
 8001240:	e001      	b.n	8001246 <TIM_GetITStatus+0x46>
  }
  else
  {
    bitstatus = RESET;
 8001242:	2300      	movs	r3, #0
 8001244:	73fb      	strb	r3, [r7, #15]
  }
  return bitstatus;
 8001246:	7bfb      	ldrb	r3, [r7, #15]
}
 8001248:	4618      	mov	r0, r3
 800124a:	3714      	adds	r7, #20
 800124c:	46bd      	mov	sp, r7
 800124e:	bc80      	pop	{r7}
 8001250:	4770      	bx	lr
 8001252:	bf00      	nop

08001254 <TIM_ClearITPendingBit>:
  * @note TIM10 and TIM11 can have only update interrupt or TIM_IT_CC1
  *     interrupt        
  * @retval None
  */
void TIM_ClearITPendingBit(TIM_TypeDef* TIMx, uint16_t TIM_IT)
{
 8001254:	b480      	push	{r7}
 8001256:	b083      	sub	sp, #12
 8001258:	af00      	add	r7, sp, #0
 800125a:	6078      	str	r0, [r7, #4]
 800125c:	460b      	mov	r3, r1
 800125e:	807b      	strh	r3, [r7, #2]
  /* Check the parameters */
  assert_param(IS_TIM_ALL_PERIPH(TIMx));
  assert_param(IS_TIM_IT(TIM_IT));
   
  /* Clear the IT pending Bit */
  TIMx->SR = (uint16_t)~TIM_IT;
 8001260:	887b      	ldrh	r3, [r7, #2]
 8001262:	43db      	mvns	r3, r3
 8001264:	b29a      	uxth	r2, r3
 8001266:	687b      	ldr	r3, [r7, #4]
 8001268:	821a      	strh	r2, [r3, #16]
}
 800126a:	bf00      	nop
 800126c:	370c      	adds	r7, #12
 800126e:	46bd      	mov	sp, r7
 8001270:	bc80      	pop	{r7}
 8001272:	4770      	bx	lr

08001274 <USART_Init>:
  * @param  USART_InitStruct: pointer to a USART_InitTypeDef structure that 
  *        contains the configuration information for the specified USART peripheral.
  * @retval None.
  */
void USART_Init(USART_TypeDef* USARTx, USART_InitTypeDef* USART_InitStruct)
{
 8001274:	b580      	push	{r7, lr}
 8001276:	b08a      	sub	sp, #40	; 0x28
 8001278:	af00      	add	r7, sp, #0
 800127a:	6078      	str	r0, [r7, #4]
 800127c:	6039      	str	r1, [r7, #0]
  uint32_t tmpreg = 0x00, apbclock = 0x00;
 800127e:	2300      	movs	r3, #0
 8001280:	627b      	str	r3, [r7, #36]	; 0x24
 8001282:	2300      	movs	r3, #0
 8001284:	623b      	str	r3, [r7, #32]
  uint32_t integerdivider = 0x00;
 8001286:	2300      	movs	r3, #0
 8001288:	61fb      	str	r3, [r7, #28]
  uint32_t fractionaldivider = 0x00;
 800128a:	2300      	movs	r3, #0
 800128c:	61bb      	str	r3, [r7, #24]
  {
    assert_param(IS_USART_123_PERIPH(USARTx));
  }
   
/*---------------------------- USART CR2 Configuration -----------------------*/
  tmpreg = USARTx->CR2;
 800128e:	687b      	ldr	r3, [r7, #4]
 8001290:	8a1b      	ldrh	r3, [r3, #16]
 8001292:	b29b      	uxth	r3, r3
 8001294:	627b      	str	r3, [r7, #36]	; 0x24
  /* Clear STOP[13:12] bits */
  tmpreg &= (uint32_t)~((uint32_t)USART_CR2_STOP);
 8001296:	6a7b      	ldr	r3, [r7, #36]	; 0x24
 8001298:	f423 5340 	bic.w	r3, r3, #12288	; 0x3000
 800129c:	627b      	str	r3, [r7, #36]	; 0x24

  /* Configure the USART Stop Bits, Clock, CPOL, CPHA and LastBit ------------*/
  /* Set STOP[13:12] bits according to USART_StopBits value */
  tmpreg |= (uint32_t)USART_InitStruct->USART_StopBits;
 800129e:	683b      	ldr	r3, [r7, #0]
 80012a0:	88db      	ldrh	r3, [r3, #6]
 80012a2:	461a      	mov	r2, r3
 80012a4:	6a7b      	ldr	r3, [r7, #36]	; 0x24
 80012a6:	4313      	orrs	r3, r2
 80012a8:	627b      	str	r3, [r7, #36]	; 0x24
  
  /* Write to USART CR2 */
  USARTx->CR2 = (uint16_t)tmpreg;
 80012aa:	6a7b      	ldr	r3, [r7, #36]	; 0x24
 80012ac:	b29a      	uxth	r2, r3
 80012ae:	687b      	ldr	r3, [r7, #4]
 80012b0:	821a      	strh	r2, [r3, #16]

/*---------------------------- USART CR1 Configuration -----------------------*/
  tmpreg = USARTx->CR1;
 80012b2:	687b      	ldr	r3, [r7, #4]
 80012b4:	899b      	ldrh	r3, [r3, #12]
 80012b6:	b29b      	uxth	r3, r3
 80012b8:	627b      	str	r3, [r7, #36]	; 0x24
  /* Clear M, PCE, PS, TE and RE bits */
  tmpreg &= (uint32_t)~((uint32_t)CR1_CLEAR_MASK);
 80012ba:	6a7b      	ldr	r3, [r7, #36]	; 0x24
 80012bc:	f423 53b0 	bic.w	r3, r3, #5632	; 0x1600
 80012c0:	f023 030c 	bic.w	r3, r3, #12
 80012c4:	627b      	str	r3, [r7, #36]	; 0x24

  /* Configure the USART Word Length, Parity and mode ----------------------- */
  /* Set the M bits according to USART_WordLength value */
  /* Set PCE and PS bits according to USART_Parity value */
  /* Set TE and RE bits according to USART_Mode value */
  tmpreg |= (uint32_t)USART_InitStruct->USART_WordLength | USART_InitStruct->USART_Parity |
 80012c6:	683b      	ldr	r3, [r7, #0]
 80012c8:	889a      	ldrh	r2, [r3, #4]
 80012ca:	683b      	ldr	r3, [r7, #0]
 80012cc:	891b      	ldrh	r3, [r3, #8]
 80012ce:	4313      	orrs	r3, r2
 80012d0:	b29a      	uxth	r2, r3
            USART_InitStruct->USART_Mode;
 80012d2:	683b      	ldr	r3, [r7, #0]
 80012d4:	895b      	ldrh	r3, [r3, #10]

  /* Configure the USART Word Length, Parity and mode ----------------------- */
  /* Set the M bits according to USART_WordLength value */
  /* Set PCE and PS bits according to USART_Parity value */
  /* Set TE and RE bits according to USART_Mode value */
  tmpreg |= (uint32_t)USART_InitStruct->USART_WordLength | USART_InitStruct->USART_Parity |
 80012d6:	4313      	orrs	r3, r2
 80012d8:	b29b      	uxth	r3, r3
 80012da:	461a      	mov	r2, r3
 80012dc:	6a7b      	ldr	r3, [r7, #36]	; 0x24
 80012de:	4313      	orrs	r3, r2
 80012e0:	627b      	str	r3, [r7, #36]	; 0x24
            USART_InitStruct->USART_Mode;

  /* Write to USART CR1 */
  USARTx->CR1 = (uint16_t)tmpreg;
 80012e2:	6a7b      	ldr	r3, [r7, #36]	; 0x24
 80012e4:	b29a      	uxth	r2, r3
 80012e6:	687b      	ldr	r3, [r7, #4]
 80012e8:	819a      	strh	r2, [r3, #12]

/*---------------------------- USART CR3 Configuration -----------------------*/  
  tmpreg = USARTx->CR3;
 80012ea:	687b      	ldr	r3, [r7, #4]
 80012ec:	8a9b      	ldrh	r3, [r3, #20]
 80012ee:	b29b      	uxth	r3, r3
 80012f0:	627b      	str	r3, [r7, #36]	; 0x24
  /* Clear CTSE and RTSE bits */
  tmpreg &= (uint32_t)~((uint32_t)CR3_CLEAR_MASK);
 80012f2:	6a7b      	ldr	r3, [r7, #36]	; 0x24
 80012f4:	f423 7340 	bic.w	r3, r3, #768	; 0x300
 80012f8:	627b      	str	r3, [r7, #36]	; 0x24

  /* Configure the USART HFC -------------------------------------------------*/
  /* Set CTSE and RTSE bits according to USART_HardwareFlowControl value */
  tmpreg |= USART_InitStruct->USART_HardwareFlowControl;
 80012fa:	683b      	ldr	r3, [r7, #0]
 80012fc:	899b      	ldrh	r3, [r3, #12]
 80012fe:	461a      	mov	r2, r3
 8001300:	6a7b      	ldr	r3, [r7, #36]	; 0x24
 8001302:	4313      	orrs	r3, r2
 8001304:	627b      	str	r3, [r7, #36]	; 0x24

  /* Write to USART CR3 */
  USARTx->CR3 = (uint16_t)tmpreg;
 8001306:	6a7b      	ldr	r3, [r7, #36]	; 0x24
 8001308:	b29a      	uxth	r2, r3
 800130a:	687b      	ldr	r3, [r7, #4]
 800130c:	829a      	strh	r2, [r3, #20]

/*---------------------------- USART BRR Configuration -----------------------*/
  /* Configure the USART Baud Rate -------------------------------------------*/
  RCC_GetClocksFreq(&RCC_ClocksStatus);
 800130e:	f107 0308 	add.w	r3, r7, #8
 8001312:	4618      	mov	r0, r3
 8001314:	f7ff fda2 	bl	8000e5c <RCC_GetClocksFreq>
  if (USARTx == USART1) 
 8001318:	687b      	ldr	r3, [r7, #4]
 800131a:	4a2e      	ldr	r2, [pc, #184]	; (80013d4 <USART_Init+0x160>)
 800131c:	4293      	cmp	r3, r2
 800131e:	d102      	bne.n	8001326 <USART_Init+0xb2>
  {
    apbclock = RCC_ClocksStatus.PCLK2_Frequency;
 8001320:	697b      	ldr	r3, [r7, #20]
 8001322:	623b      	str	r3, [r7, #32]
 8001324:	e001      	b.n	800132a <USART_Init+0xb6>
  }
  else
  {
    apbclock = RCC_ClocksStatus.PCLK1_Frequency;
 8001326:	693b      	ldr	r3, [r7, #16]
 8001328:	623b      	str	r3, [r7, #32]
  }

  /* Determine the integer part */
  if ((USARTx->CR1 & USART_CR1_OVER8) != 0)
 800132a:	687b      	ldr	r3, [r7, #4]
 800132c:	899b      	ldrh	r3, [r3, #12]
 800132e:	b29b      	uxth	r3, r3
 8001330:	b21b      	sxth	r3, r3
 8001332:	2b00      	cmp	r3, #0
 8001334:	da0c      	bge.n	8001350 <USART_Init+0xdc>
  {
    /* Integer part computing in case Oversampling mode is 8 Samples */
    integerdivider = ((25 * apbclock) / (2 * (USART_InitStruct->USART_BaudRate)));    
 8001336:	6a3a      	ldr	r2, [r7, #32]
 8001338:	4613      	mov	r3, r2
 800133a:	009b      	lsls	r3, r3, #2
 800133c:	4413      	add	r3, r2
 800133e:	009a      	lsls	r2, r3, #2
 8001340:	441a      	add	r2, r3
 8001342:	683b      	ldr	r3, [r7, #0]
 8001344:	681b      	ldr	r3, [r3, #0]
 8001346:	005b      	lsls	r3, r3, #1
 8001348:	fbb2 f3f3 	udiv	r3, r2, r3
 800134c:	61fb      	str	r3, [r7, #28]
 800134e:	e00b      	b.n	8001368 <USART_Init+0xf4>
  }
  else /* if ((USARTx->CR1 & CR1_OVER8_Set) == 0) */
  {
    /* Integer part computing in case Oversampling mode is 16 Samples */
    integerdivider = ((25 * apbclock) / (4 * (USART_InitStruct->USART_BaudRate)));    
 8001350:	6a3a      	ldr	r2, [r7, #32]
 8001352:	4613      	mov	r3, r2
 8001354:	009b      	lsls	r3, r3, #2
 8001356:	4413      	add	r3, r2
 8001358:	009a      	lsls	r2, r3, #2
 800135a:	441a      	add	r2, r3
 800135c:	683b      	ldr	r3, [r7, #0]
 800135e:	681b      	ldr	r3, [r3, #0]
 8001360:	009b      	lsls	r3, r3, #2
 8001362:	fbb2 f3f3 	udiv	r3, r2, r3
 8001366:	61fb      	str	r3, [r7, #28]
  }
  tmpreg = (integerdivider / 100) << 4;
 8001368:	69fb      	ldr	r3, [r7, #28]
 800136a:	4a1b      	ldr	r2, [pc, #108]	; (80013d8 <USART_Init+0x164>)
 800136c:	fba2 2303 	umull	r2, r3, r2, r3
 8001370:	095b      	lsrs	r3, r3, #5
 8001372:	011b      	lsls	r3, r3, #4
 8001374:	627b      	str	r3, [r7, #36]	; 0x24

  /* Determine the fractional part */
  fractionaldivider = integerdivider - (100 * (tmpreg >> 4));
 8001376:	6a7b      	ldr	r3, [r7, #36]	; 0x24
 8001378:	091b      	lsrs	r3, r3, #4
 800137a:	2264      	movs	r2, #100	; 0x64
 800137c:	fb02 f303 	mul.w	r3, r2, r3
 8001380:	69fa      	ldr	r2, [r7, #28]
 8001382:	1ad3      	subs	r3, r2, r3
 8001384:	61bb      	str	r3, [r7, #24]

  /* Implement the fractional part in the register */
  if ((USARTx->CR1 & USART_CR1_OVER8) != 0)
 8001386:	687b      	ldr	r3, [r7, #4]
 8001388:	899b      	ldrh	r3, [r3, #12]
 800138a:	b29b      	uxth	r3, r3
 800138c:	b21b      	sxth	r3, r3
 800138e:	2b00      	cmp	r3, #0
 8001390:	da0c      	bge.n	80013ac <USART_Init+0x138>
  {
    tmpreg |= ((((fractionaldivider * 8) + 50) / 100)) & ((uint8_t)0x07);
 8001392:	69bb      	ldr	r3, [r7, #24]
 8001394:	00db      	lsls	r3, r3, #3
 8001396:	3332      	adds	r3, #50	; 0x32
 8001398:	4a0f      	ldr	r2, [pc, #60]	; (80013d8 <USART_Init+0x164>)
 800139a:	fba2 2303 	umull	r2, r3, r2, r3
 800139e:	095b      	lsrs	r3, r3, #5
 80013a0:	f003 0307 	and.w	r3, r3, #7
 80013a4:	6a7a      	ldr	r2, [r7, #36]	; 0x24
 80013a6:	4313      	orrs	r3, r2
 80013a8:	627b      	str	r3, [r7, #36]	; 0x24
 80013aa:	e00b      	b.n	80013c4 <USART_Init+0x150>
  }
  else /* if ((USARTx->CR1 & CR1_OVER8_Set) == 0) */
  {
    tmpreg |= ((((fractionaldivider * 16) + 50) / 100)) & ((uint8_t)0x0F);
 80013ac:	69bb      	ldr	r3, [r7, #24]
 80013ae:	011b      	lsls	r3, r3, #4
 80013b0:	3332      	adds	r3, #50	; 0x32
 80013b2:	4a09      	ldr	r2, [pc, #36]	; (80013d8 <USART_Init+0x164>)
 80013b4:	fba2 2303 	umull	r2, r3, r2, r3
 80013b8:	095b      	lsrs	r3, r3, #5
 80013ba:	f003 030f 	and.w	r3, r3, #15
 80013be:	6a7a      	ldr	r2, [r7, #36]	; 0x24
 80013c0:	4313      	orrs	r3, r2
 80013c2:	627b      	str	r3, [r7, #36]	; 0x24
  }
 
  /* Write to USART BRR */
  USARTx->BRR = (uint16_t)tmpreg;
 80013c4:	6a7b      	ldr	r3, [r7, #36]	; 0x24
 80013c6:	b29a      	uxth	r2, r3
 80013c8:	687b      	ldr	r3, [r7, #4]
 80013ca:	811a      	strh	r2, [r3, #8]
}
 80013cc:	bf00      	nop
 80013ce:	3728      	adds	r7, #40	; 0x28
 80013d0:	46bd      	mov	sp, r7
 80013d2:	bd80      	pop	{r7, pc}
 80013d4:	40013800 	.word	0x40013800
 80013d8:	51eb851f 	.word	0x51eb851f

080013dc <USART_Cmd>:
  * @param  NewState: new state of the USARTx peripheral.
  *         This parameter can be: ENABLE or DISABLE.
  * @retval None.
  */
void USART_Cmd(USART_TypeDef* USARTx, FunctionalState NewState)
{
 80013dc:	b480      	push	{r7}
 80013de:	b083      	sub	sp, #12
 80013e0:	af00      	add	r7, sp, #0
 80013e2:	6078      	str	r0, [r7, #4]
 80013e4:	460b      	mov	r3, r1
 80013e6:	70fb      	strb	r3, [r7, #3]
  /* Check the parameters */
  assert_param(IS_USART_ALL_PERIPH(USARTx));
  assert_param(IS_FUNCTIONAL_STATE(NewState));
  
  if (NewState != DISABLE)
 80013e8:	78fb      	ldrb	r3, [r7, #3]
 80013ea:	2b00      	cmp	r3, #0
 80013ec:	d008      	beq.n	8001400 <USART_Cmd+0x24>
  {
    /* Enable the selected USART by setting the UE bit in the CR1 register */
    USARTx->CR1 |= USART_CR1_UE;
 80013ee:	687b      	ldr	r3, [r7, #4]
 80013f0:	899b      	ldrh	r3, [r3, #12]
 80013f2:	b29b      	uxth	r3, r3
 80013f4:	f443 5300 	orr.w	r3, r3, #8192	; 0x2000
 80013f8:	b29a      	uxth	r2, r3
 80013fa:	687b      	ldr	r3, [r7, #4]
 80013fc:	819a      	strh	r2, [r3, #12]
  else
  {
    /* Disable the selected USART by clearing the UE bit in the CR1 register */
    USARTx->CR1 &= (uint16_t)~((uint16_t)USART_CR1_UE);
  }
}
 80013fe:	e007      	b.n	8001410 <USART_Cmd+0x34>
    USARTx->CR1 |= USART_CR1_UE;
  }
  else
  {
    /* Disable the selected USART by clearing the UE bit in the CR1 register */
    USARTx->CR1 &= (uint16_t)~((uint16_t)USART_CR1_UE);
 8001400:	687b      	ldr	r3, [r7, #4]
 8001402:	899b      	ldrh	r3, [r3, #12]
 8001404:	b29b      	uxth	r3, r3
 8001406:	f423 5300 	bic.w	r3, r3, #8192	; 0x2000
 800140a:	b29a      	uxth	r2, r3
 800140c:	687b      	ldr	r3, [r7, #4]
 800140e:	819a      	strh	r2, [r3, #12]
  }
}
 8001410:	bf00      	nop
 8001412:	370c      	adds	r7, #12
 8001414:	46bd      	mov	sp, r7
 8001416:	bc80      	pop	{r7}
 8001418:	4770      	bx	lr
 800141a:	bf00      	nop

0800141c <USART_SendData>:
  *   USART1, USART2, USART3, UART4 or UART5.
  * @param  Data: the data to transmit.
  * @retval None.
  */
void USART_SendData(USART_TypeDef* USARTx, uint16_t Data)
{
 800141c:	b480      	push	{r7}
 800141e:	b083      	sub	sp, #12
 8001420:	af00      	add	r7, sp, #0
 8001422:	6078      	str	r0, [r7, #4]
 8001424:	460b      	mov	r3, r1
 8001426:	807b      	strh	r3, [r7, #2]
  /* Check the parameters */
  assert_param(IS_USART_ALL_PERIPH(USARTx));
  assert_param(IS_USART_DATA(Data)); 
    
  /* Transmit Data */
  USARTx->DR = (Data & (uint16_t)0x01FF);
 8001428:	887b      	ldrh	r3, [r7, #2]
 800142a:	f3c3 0308 	ubfx	r3, r3, #0, #9
 800142e:	b29a      	uxth	r2, r3
 8001430:	687b      	ldr	r3, [r7, #4]
 8001432:	809a      	strh	r2, [r3, #4]
}
 8001434:	bf00      	nop
 8001436:	370c      	adds	r7, #12
 8001438:	46bd      	mov	sp, r7
 800143a:	bc80      	pop	{r7}
 800143c:	4770      	bx	lr
 800143e:	bf00      	nop

08001440 <USART_GetFlagStatus>:
  *     @arg USART_FLAG_FE:   Framing Error flag.
  *     @arg USART_FLAG_PE:   Parity Error flag.
  * @retval The new state of USART_FLAG (SET or RESET).
  */
FlagStatus USART_GetFlagStatus(USART_TypeDef* USARTx, uint16_t USART_FLAG)
{
 8001440:	b480      	push	{r7}
 8001442:	b085      	sub	sp, #20
 8001444:	af00      	add	r7, sp, #0
 8001446:	6078      	str	r0, [r7, #4]
 8001448:	460b      	mov	r3, r1
 800144a:	807b      	strh	r3, [r7, #2]
  FlagStatus bitstatus = RESET;
 800144c:	2300      	movs	r3, #0
 800144e:	73fb      	strb	r3, [r7, #15]
  if (USART_FLAG == USART_FLAG_CTS)
  {
    assert_param(IS_USART_123_PERIPH(USARTx));
  } 
    
  if ((USARTx->SR & USART_FLAG) != (uint16_t)RESET)
 8001450:	687b      	ldr	r3, [r7, #4]
 8001452:	881b      	ldrh	r3, [r3, #0]
 8001454:	b29a      	uxth	r2, r3
 8001456:	887b      	ldrh	r3, [r7, #2]
 8001458:	4013      	ands	r3, r2
 800145a:	b29b      	uxth	r3, r3
 800145c:	2b00      	cmp	r3, #0
 800145e:	d002      	beq.n	8001466 <USART_GetFlagStatus+0x26>
  {
    bitstatus = SET;
 8001460:	2301      	movs	r3, #1
 8001462:	73fb      	strb	r3, [r7, #15]
 8001464:	e001      	b.n	800146a <USART_GetFlagStatus+0x2a>
  }
  else
  {
    bitstatus = RESET;
 8001466:	2300      	movs	r3, #0
 8001468:	73fb      	strb	r3, [r7, #15]
  }
  return bitstatus;
 800146a:	7bfb      	ldrb	r3, [r7, #15]
}
 800146c:	4618      	mov	r0, r3
 800146e:	3714      	adds	r7, #20
 8001470:	46bd      	mov	sp, r7
 8001472:	bc80      	pop	{r7}
 8001474:	4770      	bx	lr
 8001476:	bf00      	nop

08001478 <I2C1_initDMA>:

int32_t I2C_Rx_Buffer[10];
uint8_t deviceAddrUseI2c = 0;
uint8_t readReg = 0;

void I2C1_initDMA(void) {
 8001478:	b580      	push	{r7, lr}
 800147a:	b08c      	sub	sp, #48	; 0x30
 800147c:	af00      	add	r7, sp, #0
	NVIC_InitTypeDef NVIC_InitStructure;
	DMA_InitTypeDef DMA_InitStructure;
	RCC_AHBPeriphClockCmd(RCC_AHBPeriph_DMA1, ENABLE);
 800147e:	2101      	movs	r1, #1
 8001480:	f04f 7080 	mov.w	r0, #16777216	; 0x1000000
 8001484:	f7ff fdc4 	bl	8001010 <RCC_AHBPeriphClockCmd>
	DMA_DeInit(DMA1_Channel7);
 8001488:	481c      	ldr	r0, [pc, #112]	; (80014fc <I2C1_initDMA+0x84>)
 800148a:	f7ff f86f 	bl	800056c <DMA_DeInit>

	DMA_InitStructure.DMA_PeripheralBaseAddr = (uint32_t) 0x40005410;
 800148e:	4b1c      	ldr	r3, [pc, #112]	; (8001500 <I2C1_initDMA+0x88>)
 8001490:	603b      	str	r3, [r7, #0]
	DMA_InitStructure.DMA_MemoryBaseAddr = (uint32_t) I2C_Rx_Buffer;
 8001492:	4b1c      	ldr	r3, [pc, #112]	; (8001504 <I2C1_initDMA+0x8c>)
 8001494:	607b      	str	r3, [r7, #4]
	DMA_InitStructure.DMA_M2M = DMA_M2M_Disable;
 8001496:	2300      	movs	r3, #0
 8001498:	62bb      	str	r3, [r7, #40]	; 0x28
	DMA_InitStructure.DMA_Mode = DMA_Mode_Normal;
 800149a:	2300      	movs	r3, #0
 800149c:	623b      	str	r3, [r7, #32]
	DMA_InitStructure.DMA_Priority = DMA_Priority_Medium;
 800149e:	f44f 5380 	mov.w	r3, #4096	; 0x1000
 80014a2:	627b      	str	r3, [r7, #36]	; 0x24
	DMA_InitStructure.DMA_DIR = DMA_DIR_PeripheralSRC;
 80014a4:	2300      	movs	r3, #0
 80014a6:	60bb      	str	r3, [r7, #8]
	DMA_InitStructure.DMA_BufferSize = 1;
 80014a8:	2301      	movs	r3, #1
 80014aa:	60fb      	str	r3, [r7, #12]
	DMA_InitStructure.DMA_PeripheralInc = DMA_PeripheralInc_Disable;
 80014ac:	2300      	movs	r3, #0
 80014ae:	613b      	str	r3, [r7, #16]
	DMA_InitStructure.DMA_MemoryInc = DMA_MemoryInc_Enable;
 80014b0:	2380      	movs	r3, #128	; 0x80
 80014b2:	617b      	str	r3, [r7, #20]
	DMA_InitStructure.DMA_PeripheralDataSize = DMA_PeripheralDataSize_Byte;
 80014b4:	2300      	movs	r3, #0
 80014b6:	61bb      	str	r3, [r7, #24]
	DMA_InitStructure.DMA_MemoryDataSize = DMA_MemoryDataSize_Byte;
 80014b8:	2300      	movs	r3, #0
 80014ba:	61fb      	str	r3, [r7, #28]
	DMA_Init(DMA1_Channel7, &DMA_InitStructure);
 80014bc:	463b      	mov	r3, r7
 80014be:	4619      	mov	r1, r3
 80014c0:	480e      	ldr	r0, [pc, #56]	; (80014fc <I2C1_initDMA+0x84>)
 80014c2:	f7ff f90f 	bl	80006e4 <DMA_Init>
	DMA_ITConfig(DMA1_Channel7, DMA_IT_TC, ENABLE);
 80014c6:	2201      	movs	r2, #1
 80014c8:	2102      	movs	r1, #2
 80014ca:	480c      	ldr	r0, [pc, #48]	; (80014fc <I2C1_initDMA+0x84>)
 80014cc:	f7ff f972 	bl	80007b4 <DMA_ITConfig>

	NVIC_InitStructure.NVIC_IRQChannel = DMA1_Channel7_IRQn;
 80014d0:	2311      	movs	r3, #17
 80014d2:	f887 302c 	strb.w	r3, [r7, #44]	; 0x2c
	NVIC_InitStructure.NVIC_IRQChannelPreemptionPriority = 0;
 80014d6:	2300      	movs	r3, #0
 80014d8:	f887 302d 	strb.w	r3, [r7, #45]	; 0x2d
	NVIC_InitStructure.NVIC_IRQChannelSubPriority = 2;
 80014dc:	2302      	movs	r3, #2
 80014de:	f887 302e 	strb.w	r3, [r7, #46]	; 0x2e
	NVIC_InitStructure.NVIC_IRQChannelCmd = ENABLE;
 80014e2:	2301      	movs	r3, #1
 80014e4:	f887 302f 	strb.w	r3, [r7, #47]	; 0x2f
	NVIC_Init(&NVIC_InitStructure);
 80014e8:	f107 032c 	add.w	r3, r7, #44	; 0x2c
 80014ec:	4618      	mov	r0, r3
 80014ee:	f7fe ffdd 	bl	80004ac <NVIC_Init>
}
 80014f2:	bf00      	nop
 80014f4:	3730      	adds	r7, #48	; 0x30
 80014f6:	46bd      	mov	sp, r7
 80014f8:	bd80      	pop	{r7, pc}
 80014fa:	bf00      	nop
 80014fc:	40026080 	.word	0x40026080
 8001500:	40005410 	.word	0x40005410
 8001504:	2000004c 	.word	0x2000004c

08001508 <I2C1_clearDeviceAddress>:
uint8_t I2C1_getDeviceAddress(void) {
	return deviceAddrUseI2c;
}


void I2C1_clearDeviceAddress(void) {
 8001508:	b480      	push	{r7}
 800150a:	af00      	add	r7, sp, #0
	deviceAddrUseI2c = 0;
 800150c:	4b03      	ldr	r3, [pc, #12]	; (800151c <I2C1_clearDeviceAddress+0x14>)
 800150e:	2200      	movs	r2, #0
 8001510:	701a      	strb	r2, [r3, #0]
}
 8001512:	bf00      	nop
 8001514:	46bd      	mov	sp, r7
 8001516:	bc80      	pop	{r7}
 8001518:	4770      	bx	lr
 800151a:	bf00      	nop
 800151c:	2000003c 	.word	0x2000003c

08001520 <I2C1_getRxBuffer>:


int32_t I2C1_getRxBuffer(int index) {
 8001520:	b480      	push	{r7}
 8001522:	b083      	sub	sp, #12
 8001524:	af00      	add	r7, sp, #0
 8001526:	6078      	str	r0, [r7, #4]
	return I2C_Rx_Buffer[index];
 8001528:	4a04      	ldr	r2, [pc, #16]	; (800153c <I2C1_getRxBuffer+0x1c>)
 800152a:	687b      	ldr	r3, [r7, #4]
 800152c:	f852 3023 	ldr.w	r3, [r2, r3, lsl #2]
}
 8001530:	4618      	mov	r0, r3
 8001532:	370c      	adds	r7, #12
 8001534:	46bd      	mov	sp, r7
 8001536:	bc80      	pop	{r7}
 8001538:	4770      	bx	lr
 800153a:	bf00      	nop
 800153c:	2000004c 	.word	0x2000004c

08001540 <I2C1_getReadRegister>:


uint8_t I2C1_getReadRegister(void) {
 8001540:	b480      	push	{r7}
 8001542:	af00      	add	r7, sp, #0
	return readReg;
 8001544:	4b02      	ldr	r3, [pc, #8]	; (8001550 <I2C1_getReadRegister+0x10>)
 8001546:	781b      	ldrb	r3, [r3, #0]
}
 8001548:	4618      	mov	r0, r3
 800154a:	46bd      	mov	sp, r7
 800154c:	bc80      	pop	{r7}
 800154e:	4770      	bx	lr
 8001550:	2000003d 	.word	0x2000003d

08001554 <I2C1_clearReadRegister>:


void I2C1_clearReadRegister(void) {
 8001554:	b480      	push	{r7}
 8001556:	af00      	add	r7, sp, #0
	readReg = 0;
 8001558:	4b03      	ldr	r3, [pc, #12]	; (8001568 <I2C1_clearReadRegister+0x14>)
 800155a:	2200      	movs	r2, #0
 800155c:	701a      	strb	r2, [r3, #0]
}
 800155e:	bf00      	nop
 8001560:	46bd      	mov	sp, r7
 8001562:	bc80      	pop	{r7}
 8001564:	4770      	bx	lr
 8001566:	bf00      	nop
 8001568:	2000003d 	.word	0x2000003d

0800156c <initI2C1>:


// inicializacia pre I2C zbernicu
void initI2C1(void) {
 800156c:	b580      	push	{r7, lr}
 800156e:	b086      	sub	sp, #24
 8001570:	af00      	add	r7, sp, #0
	GPIO_InitTypeDef GPIO_InitStructure;
	I2C_InitTypeDef I2C_InitStructure;

	RCC_AHBPeriphClockCmd(RCC_AHBPeriph_GPIOB, ENABLE);
 8001572:	2101      	movs	r1, #1
 8001574:	2002      	movs	r0, #2
 8001576:	f7ff fd4b 	bl	8001010 <RCC_AHBPeriphClockCmd>
	RCC_APB1PeriphClockCmd(RCC_APB1Periph_I2C1, ENABLE);
 800157a:	2101      	movs	r1, #1
 800157c:	f44f 1000 	mov.w	r0, #2097152	; 0x200000
 8001580:	f7ff fd82 	bl	8001088 <RCC_APB1PeriphClockCmd>

	GPIO_PinAFConfig(GPIOB, GPIO_PinSource8, GPIO_AF_I2C1);
 8001584:	2204      	movs	r2, #4
 8001586:	2108      	movs	r1, #8
 8001588:	481c      	ldr	r0, [pc, #112]	; (80015fc <initI2C1+0x90>)
 800158a:	f7ff fa09 	bl	80009a0 <GPIO_PinAFConfig>
	GPIO_PinAFConfig(GPIOB, GPIO_PinSource9, GPIO_AF_I2C1);
 800158e:	2204      	movs	r2, #4
 8001590:	2109      	movs	r1, #9
 8001592:	481a      	ldr	r0, [pc, #104]	; (80015fc <initI2C1+0x90>)
 8001594:	f7ff fa04 	bl	80009a0 <GPIO_PinAFConfig>

	GPIO_InitStructure.GPIO_Pin = GPIO_Pin_8 | GPIO_Pin_9;
 8001598:	f44f 7340 	mov.w	r3, #768	; 0x300
 800159c:	613b      	str	r3, [r7, #16]
	GPIO_InitStructure.GPIO_Mode = GPIO_Mode_AF;
 800159e:	2302      	movs	r3, #2
 80015a0:	753b      	strb	r3, [r7, #20]
	GPIO_InitStructure.GPIO_OType = GPIO_OType_OD;
 80015a2:	2301      	movs	r3, #1
 80015a4:	75bb      	strb	r3, [r7, #22]
	GPIO_InitStructure.GPIO_PuPd = GPIO_PuPd_NOPULL;
 80015a6:	2300      	movs	r3, #0
 80015a8:	75fb      	strb	r3, [r7, #23]
	GPIO_InitStructure.GPIO_Speed = GPIO_Speed_40MHz;
 80015aa:	2303      	movs	r3, #3
 80015ac:	757b      	strb	r3, [r7, #21]
	GPIO_Init(GPIOB, &GPIO_InitStructure);
 80015ae:	f107 0310 	add.w	r3, r7, #16
 80015b2:	4619      	mov	r1, r3
 80015b4:	4811      	ldr	r0, [pc, #68]	; (80015fc <initI2C1+0x90>)
 80015b6:	f7ff f95d 	bl	8000874 <GPIO_Init>

	I2C_DeInit(I2C1);
 80015ba:	4811      	ldr	r0, [pc, #68]	; (8001600 <initI2C1+0x94>)
 80015bc:	f7ff fa38 	bl	8000a30 <I2C_DeInit>
	I2C_InitStructure.I2C_Mode = I2C_Mode_I2C;
 80015c0:	2300      	movs	r3, #0
 80015c2:	80bb      	strh	r3, [r7, #4]
	I2C_InitStructure.I2C_DutyCycle = I2C_DutyCycle_2;
 80015c4:	f64b 73ff 	movw	r3, #49151	; 0xbfff
 80015c8:	80fb      	strh	r3, [r7, #6]
	I2C_InitStructure.I2C_OwnAddress1 = 0x00;
 80015ca:	2300      	movs	r3, #0
 80015cc:	813b      	strh	r3, [r7, #8]
	I2C_InitStructure.I2C_Ack = I2C_Ack_Disable;
 80015ce:	2300      	movs	r3, #0
 80015d0:	817b      	strh	r3, [r7, #10]
	I2C_InitStructure.I2C_AcknowledgedAddress = I2C_AcknowledgedAddress_7bit;
 80015d2:	f44f 4380 	mov.w	r3, #16384	; 0x4000
 80015d6:	81bb      	strh	r3, [r7, #12]
	I2C_InitStructure.I2C_ClockSpeed = 400000;
 80015d8:	4b0a      	ldr	r3, [pc, #40]	; (8001604 <initI2C1+0x98>)
 80015da:	603b      	str	r3, [r7, #0]

	I2C_Init(I2C1, &I2C_InitStructure);
 80015dc:	463b      	mov	r3, r7
 80015de:	4619      	mov	r1, r3
 80015e0:	4807      	ldr	r0, [pc, #28]	; (8001600 <initI2C1+0x94>)
 80015e2:	f7ff fa49 	bl	8000a78 <I2C_Init>
	I2C_Cmd(I2C1, ENABLE);
 80015e6:	2101      	movs	r1, #1
 80015e8:	4805      	ldr	r0, [pc, #20]	; (8001600 <initI2C1+0x94>)
 80015ea:	f7ff fb07 	bl	8000bfc <I2C_Cmd>
	//I2C_AcknowledgeConfig(I2C1, ENABLE);
	I2C1_initDMA();
 80015ee:	f7ff ff43 	bl	8001478 <I2C1_initDMA>
}
 80015f2:	bf00      	nop
 80015f4:	3718      	adds	r7, #24
 80015f6:	46bd      	mov	sp, r7
 80015f8:	bd80      	pop	{r7, pc}
 80015fa:	bf00      	nop
 80015fc:	40020400 	.word	0x40020400
 8001600:	40005400 	.word	0x40005400
 8001604:	00061a80 	.word	0x00061a80

08001608 <I2C1_BytesWrite>:


void I2C1_BytesWrite(uint8_t slaveAddr, uint8_t pBuffer[], uint8_t length,uint8_t writeAddr) {
 8001608:	b580      	push	{r7, lr}
 800160a:	b084      	sub	sp, #16
 800160c:	af00      	add	r7, sp, #0
 800160e:	6039      	str	r1, [r7, #0]
 8001610:	4611      	mov	r1, r2
 8001612:	461a      	mov	r2, r3
 8001614:	4603      	mov	r3, r0
 8001616:	71fb      	strb	r3, [r7, #7]
 8001618:	460b      	mov	r3, r1
 800161a:	71bb      	strb	r3, [r7, #6]
 800161c:	4613      	mov	r3, r2
 800161e:	717b      	strb	r3, [r7, #5]
	while (deviceAddrUseI2c != 0);
 8001620:	bf00      	nop
 8001622:	4b2b      	ldr	r3, [pc, #172]	; (80016d0 <I2C1_BytesWrite+0xc8>)
 8001624:	781b      	ldrb	r3, [r3, #0]
 8001626:	2b00      	cmp	r3, #0
 8001628:	d1fb      	bne.n	8001622 <I2C1_BytesWrite+0x1a>
	deviceAddrUseI2c = slaveAddr;
 800162a:	4a29      	ldr	r2, [pc, #164]	; (80016d0 <I2C1_BytesWrite+0xc8>)
 800162c:	79fb      	ldrb	r3, [r7, #7]
 800162e:	7013      	strb	r3, [r2, #0]
	I2C_GenerateSTART(I2C1, ENABLE);
 8001630:	2101      	movs	r1, #1
 8001632:	4828      	ldr	r0, [pc, #160]	; (80016d4 <I2C1_BytesWrite+0xcc>)
 8001634:	f7ff fb02 	bl	8000c3c <I2C_GenerateSTART>
	while (!I2C_CheckEvent(I2C1, I2C_EVENT_MASTER_MODE_SELECT));
 8001638:	bf00      	nop
 800163a:	4927      	ldr	r1, [pc, #156]	; (80016d8 <I2C1_BytesWrite+0xd0>)
 800163c:	4825      	ldr	r0, [pc, #148]	; (80016d4 <I2C1_BytesWrite+0xcc>)
 800163e:	f7ff fbab 	bl	8000d98 <I2C_CheckEvent>
 8001642:	4603      	mov	r3, r0
 8001644:	2b00      	cmp	r3, #0
 8001646:	d0f8      	beq.n	800163a <I2C1_BytesWrite+0x32>
	I2C_Send7bitAddress(I2C1, slaveAddr, I2C_Direction_Transmitter);
 8001648:	79fb      	ldrb	r3, [r7, #7]
 800164a:	2200      	movs	r2, #0
 800164c:	4619      	mov	r1, r3
 800164e:	4821      	ldr	r0, [pc, #132]	; (80016d4 <I2C1_BytesWrite+0xcc>)
 8001650:	f7ff fb34 	bl	8000cbc <I2C_Send7bitAddress>
	while (!I2C_CheckEvent(I2C1, I2C_EVENT_MASTER_TRANSMITTER_MODE_SELECTED));
 8001654:	bf00      	nop
 8001656:	4921      	ldr	r1, [pc, #132]	; (80016dc <I2C1_BytesWrite+0xd4>)
 8001658:	481e      	ldr	r0, [pc, #120]	; (80016d4 <I2C1_BytesWrite+0xcc>)
 800165a:	f7ff fb9d 	bl	8000d98 <I2C_CheckEvent>
 800165e:	4603      	mov	r3, r0
 8001660:	2b00      	cmp	r3, #0
 8001662:	d0f8      	beq.n	8001656 <I2C1_BytesWrite+0x4e>
	I2C_SendData(I2C1, writeAddr);
 8001664:	797b      	ldrb	r3, [r7, #5]
 8001666:	4619      	mov	r1, r3
 8001668:	481a      	ldr	r0, [pc, #104]	; (80016d4 <I2C1_BytesWrite+0xcc>)
 800166a:	f7ff fb45 	bl	8000cf8 <I2C_SendData>
	for (int i = 0; i < length; i++) {
 800166e:	2300      	movs	r3, #0
 8001670:	60fb      	str	r3, [r7, #12]
 8001672:	e014      	b.n	800169e <I2C1_BytesWrite+0x96>
		I2C_SendData(I2C1, pBuffer[i]);
 8001674:	68fb      	ldr	r3, [r7, #12]
 8001676:	683a      	ldr	r2, [r7, #0]
 8001678:	4413      	add	r3, r2
 800167a:	781b      	ldrb	r3, [r3, #0]
 800167c:	4619      	mov	r1, r3
 800167e:	4815      	ldr	r0, [pc, #84]	; (80016d4 <I2C1_BytesWrite+0xcc>)
 8001680:	f7ff fb3a 	bl	8000cf8 <I2C_SendData>
		for (int x = 0; x < 1000; x++);
 8001684:	2300      	movs	r3, #0
 8001686:	60bb      	str	r3, [r7, #8]
 8001688:	e002      	b.n	8001690 <I2C1_BytesWrite+0x88>
 800168a:	68bb      	ldr	r3, [r7, #8]
 800168c:	3301      	adds	r3, #1
 800168e:	60bb      	str	r3, [r7, #8]
 8001690:	68bb      	ldr	r3, [r7, #8]
 8001692:	f5b3 7f7a 	cmp.w	r3, #1000	; 0x3e8
 8001696:	dbf8      	blt.n	800168a <I2C1_BytesWrite+0x82>
	I2C_GenerateSTART(I2C1, ENABLE);
	while (!I2C_CheckEvent(I2C1, I2C_EVENT_MASTER_MODE_SELECT));
	I2C_Send7bitAddress(I2C1, slaveAddr, I2C_Direction_Transmitter);
	while (!I2C_CheckEvent(I2C1, I2C_EVENT_MASTER_TRANSMITTER_MODE_SELECTED));
	I2C_SendData(I2C1, writeAddr);
	for (int i = 0; i < length; i++) {
 8001698:	68fb      	ldr	r3, [r7, #12]
 800169a:	3301      	adds	r3, #1
 800169c:	60fb      	str	r3, [r7, #12]
 800169e:	79ba      	ldrb	r2, [r7, #6]
 80016a0:	68fb      	ldr	r3, [r7, #12]
 80016a2:	429a      	cmp	r2, r3
 80016a4:	dce6      	bgt.n	8001674 <I2C1_BytesWrite+0x6c>
		I2C_SendData(I2C1, pBuffer[i]);
		for (int x = 0; x < 1000; x++);
	}
	while (!I2C_CheckEvent(I2C1, I2C_EVENT_MASTER_BYTE_TRANSMITTED));
 80016a6:	bf00      	nop
 80016a8:	490d      	ldr	r1, [pc, #52]	; (80016e0 <I2C1_BytesWrite+0xd8>)
 80016aa:	480a      	ldr	r0, [pc, #40]	; (80016d4 <I2C1_BytesWrite+0xcc>)
 80016ac:	f7ff fb74 	bl	8000d98 <I2C_CheckEvent>
 80016b0:	4603      	mov	r3, r0
 80016b2:	2b00      	cmp	r3, #0
 80016b4:	d0f8      	beq.n	80016a8 <I2C1_BytesWrite+0xa0>
	I2C_GenerateSTOP(I2C1, ENABLE);
 80016b6:	2101      	movs	r1, #1
 80016b8:	4806      	ldr	r0, [pc, #24]	; (80016d4 <I2C1_BytesWrite+0xcc>)
 80016ba:	f7ff fadf 	bl	8000c7c <I2C_GenerateSTOP>
	I2C1_clearReadRegister();
 80016be:	f7ff ff49 	bl	8001554 <I2C1_clearReadRegister>
	I2C1_clearDeviceAddress();
 80016c2:	f7ff ff21 	bl	8001508 <I2C1_clearDeviceAddress>
}
 80016c6:	bf00      	nop
 80016c8:	3710      	adds	r7, #16
 80016ca:	46bd      	mov	sp, r7
 80016cc:	bd80      	pop	{r7, pc}
 80016ce:	bf00      	nop
 80016d0:	2000003c 	.word	0x2000003c
 80016d4:	40005400 	.word	0x40005400
 80016d8:	00030001 	.word	0x00030001
 80016dc:	00070082 	.word	0x00070082
 80016e0:	00070084 	.word	0x00070084

080016e4 <I2C1_DMA_Read>:


void I2C1_DMA_Read(uint8_t slaveAddr, uint8_t readAddr,uint8_t numberBytesReceive) {
 80016e4:	b580      	push	{r7, lr}
 80016e6:	b082      	sub	sp, #8
 80016e8:	af00      	add	r7, sp, #0
 80016ea:	4603      	mov	r3, r0
 80016ec:	71fb      	strb	r3, [r7, #7]
 80016ee:	460b      	mov	r3, r1
 80016f0:	71bb      	strb	r3, [r7, #6]
 80016f2:	4613      	mov	r3, r2
 80016f4:	717b      	strb	r3, [r7, #5]
	while (deviceAddrUseI2c != 0);
 80016f6:	bf00      	nop
 80016f8:	4b38      	ldr	r3, [pc, #224]	; (80017dc <I2C1_DMA_Read+0xf8>)
 80016fa:	781b      	ldrb	r3, [r3, #0]
 80016fc:	2b00      	cmp	r3, #0
 80016fe:	d1fb      	bne.n	80016f8 <I2C1_DMA_Read+0x14>
	deviceAddrUseI2c = slaveAddr;
 8001700:	4a36      	ldr	r2, [pc, #216]	; (80017dc <I2C1_DMA_Read+0xf8>)
 8001702:	79fb      	ldrb	r3, [r7, #7]
 8001704:	7013      	strb	r3, [r2, #0]
	readReg = readAddr;
 8001706:	4a36      	ldr	r2, [pc, #216]	; (80017e0 <I2C1_DMA_Read+0xfc>)
 8001708:	79bb      	ldrb	r3, [r7, #6]
 800170a:	7013      	strb	r3, [r2, #0]
	// vypneme DMA kanal
	DMA_Cmd(DMA1_Channel7, DISABLE);
 800170c:	2100      	movs	r1, #0
 800170e:	4835      	ldr	r0, [pc, #212]	; (80017e4 <I2C1_DMA_Read+0x100>)
 8001710:	f7ff f826 	bl	8000760 <DMA_Cmd>
	// nastavime pocet bytov (mozne len po vypnuti kanala)
	DMA_SetCurrDataCounter(DMA1_Channel7, numberBytesReceive);
 8001714:	797b      	ldrb	r3, [r7, #5]
 8001716:	b29b      	uxth	r3, r3
 8001718:	4619      	mov	r1, r3
 800171a:	4832      	ldr	r0, [pc, #200]	; (80017e4 <I2C1_DMA_Read+0x100>)
 800171c:	f7ff f83c 	bl	8000798 <DMA_SetCurrDataCounter>
	// kym je zmernica zaneprazdnena
	while (I2C_GetFlagStatus(I2C1, I2C_FLAG_BUSY));
 8001720:	bf00      	nop
 8001722:	f44f 3100 	mov.w	r1, #131072	; 0x20000
 8001726:	4830      	ldr	r0, [pc, #192]	; (80017e8 <I2C1_DMA_Read+0x104>)
 8001728:	f7ff fb66 	bl	8000df8 <I2C_GetFlagStatus>
 800172c:	4603      	mov	r3, r0
 800172e:	2b00      	cmp	r3, #0
 8001730:	d1f7      	bne.n	8001722 <I2C1_DMA_Read+0x3e>
	// povolime automaticke generovanie NACK
	I2C_DMALastTransferCmd(I2C1, ENABLE);
 8001732:	2101      	movs	r1, #1
 8001734:	482c      	ldr	r0, [pc, #176]	; (80017e8 <I2C1_DMA_Read+0x104>)
 8001736:	f7ff fb0f 	bl	8000d58 <I2C_DMALastTransferCmd>
	// vygenerujeme zacatie komunikacie
	I2C_GenerateSTART(I2C1, ENABLE);
 800173a:	2101      	movs	r1, #1
 800173c:	482a      	ldr	r0, [pc, #168]	; (80017e8 <I2C1_DMA_Read+0x104>)
 800173e:	f7ff fa7d 	bl	8000c3c <I2C_GenerateSTART>
	// testujeme EV5 a vynulujeme
	while (!I2C_CheckEvent(I2C1, I2C_EVENT_MASTER_MODE_SELECT));
 8001742:	bf00      	nop
 8001744:	4929      	ldr	r1, [pc, #164]	; (80017ec <I2C1_DMA_Read+0x108>)
 8001746:	4828      	ldr	r0, [pc, #160]	; (80017e8 <I2C1_DMA_Read+0x104>)
 8001748:	f7ff fb26 	bl	8000d98 <I2C_CheckEvent>
 800174c:	4603      	mov	r3, r0
 800174e:	2b00      	cmp	r3, #0
 8001750:	d0f8      	beq.n	8001744 <I2C1_DMA_Read+0x60>
	// odosleme adresu na zapis
	I2C_Send7bitAddress(I2C1, slaveAddr, I2C_Direction_Transmitter);
 8001752:	79fb      	ldrb	r3, [r7, #7]
 8001754:	2200      	movs	r2, #0
 8001756:	4619      	mov	r1, r3
 8001758:	4823      	ldr	r0, [pc, #140]	; (80017e8 <I2C1_DMA_Read+0x104>)
 800175a:	f7ff faaf 	bl	8000cbc <I2C_Send7bitAddress>
	// testujeme EV6 a vynulujeme
	while (!I2C_CheckEvent(I2C1, I2C_EVENT_MASTER_TRANSMITTER_MODE_SELECTED));
 800175e:	bf00      	nop
 8001760:	4923      	ldr	r1, [pc, #140]	; (80017f0 <I2C1_DMA_Read+0x10c>)
 8001762:	4821      	ldr	r0, [pc, #132]	; (80017e8 <I2C1_DMA_Read+0x104>)
 8001764:	f7ff fb18 	bl	8000d98 <I2C_CheckEvent>
 8001768:	4603      	mov	r3, r0
 800176a:	2b00      	cmp	r3, #0
 800176c:	d0f8      	beq.n	8001760 <I2C1_DMA_Read+0x7c>
	// vynulujeme EV6 tym, ze nastavime PE bit
	I2C_Cmd(I2C1, ENABLE);
 800176e:	2101      	movs	r1, #1
 8001770:	481d      	ldr	r0, [pc, #116]	; (80017e8 <I2C1_DMA_Read+0x104>)
 8001772:	f7ff fa43 	bl	8000bfc <I2C_Cmd>
	// odosleme vnutornu adresu do ktorej budeme zapisovat
	I2C_SendData(I2C1, readAddr);
 8001776:	79bb      	ldrb	r3, [r7, #6]
 8001778:	4619      	mov	r1, r3
 800177a:	481b      	ldr	r0, [pc, #108]	; (80017e8 <I2C1_DMA_Read+0x104>)
 800177c:	f7ff fabc 	bl	8000cf8 <I2C_SendData>
	// testujeme EV8 a vynulujeme
	while (!I2C_CheckEvent(I2C1, I2C_EVENT_MASTER_BYTE_TRANSMITTED));
 8001780:	bf00      	nop
 8001782:	491c      	ldr	r1, [pc, #112]	; (80017f4 <I2C1_DMA_Read+0x110>)
 8001784:	4818      	ldr	r0, [pc, #96]	; (80017e8 <I2C1_DMA_Read+0x104>)
 8001786:	f7ff fb07 	bl	8000d98 <I2C_CheckEvent>
 800178a:	4603      	mov	r3, r0
 800178c:	2b00      	cmp	r3, #0
 800178e:	d0f8      	beq.n	8001782 <I2C1_DMA_Read+0x9e>
	// vygenerujeme zacatie komunikacie po druhykrat
	I2C_GenerateSTART(I2C1, ENABLE);
 8001790:	2101      	movs	r1, #1
 8001792:	4815      	ldr	r0, [pc, #84]	; (80017e8 <I2C1_DMA_Read+0x104>)
 8001794:	f7ff fa52 	bl	8000c3c <I2C_GenerateSTART>
	// testujeme EV5 a vynulujeme
	while (!I2C_CheckEvent(I2C1, I2C_EVENT_MASTER_MODE_SELECT));
 8001798:	bf00      	nop
 800179a:	4914      	ldr	r1, [pc, #80]	; (80017ec <I2C1_DMA_Read+0x108>)
 800179c:	4812      	ldr	r0, [pc, #72]	; (80017e8 <I2C1_DMA_Read+0x104>)
 800179e:	f7ff fafb 	bl	8000d98 <I2C_CheckEvent>
 80017a2:	4603      	mov	r3, r0
 80017a4:	2b00      	cmp	r3, #0
 80017a6:	d0f8      	beq.n	800179a <I2C1_DMA_Read+0xb6>
	// odosleme adresu na citanie
	I2C_Send7bitAddress(I2C1, slaveAddr, I2C_Direction_Receiver);
 80017a8:	79fb      	ldrb	r3, [r7, #7]
 80017aa:	2201      	movs	r2, #1
 80017ac:	4619      	mov	r1, r3
 80017ae:	480e      	ldr	r0, [pc, #56]	; (80017e8 <I2C1_DMA_Read+0x104>)
 80017b0:	f7ff fa84 	bl	8000cbc <I2C_Send7bitAddress>
	// testujeme EV6 a vynulujeme
	while (!I2C_CheckEvent(I2C1, I2C_EVENT_MASTER_RECEIVER_MODE_SELECTED));
 80017b4:	bf00      	nop
 80017b6:	4910      	ldr	r1, [pc, #64]	; (80017f8 <I2C1_DMA_Read+0x114>)
 80017b8:	480b      	ldr	r0, [pc, #44]	; (80017e8 <I2C1_DMA_Read+0x104>)
 80017ba:	f7ff faed 	bl	8000d98 <I2C_CheckEvent>
 80017be:	4603      	mov	r3, r0
 80017c0:	2b00      	cmp	r3, #0
 80017c2:	d0f8      	beq.n	80017b6 <I2C1_DMA_Read+0xd2>
	// zapneme DMA pre zacatie komunikacie
	DMA_Cmd(DMA1_Channel7, ENABLE);
 80017c4:	2101      	movs	r1, #1
 80017c6:	4807      	ldr	r0, [pc, #28]	; (80017e4 <I2C1_DMA_Read+0x100>)
 80017c8:	f7fe ffca 	bl	8000760 <DMA_Cmd>
	I2C_DMACmd(I2C1, ENABLE);
 80017cc:	2101      	movs	r1, #1
 80017ce:	4806      	ldr	r0, [pc, #24]	; (80017e8 <I2C1_DMA_Read+0x104>)
 80017d0:	f7ff faa2 	bl	8000d18 <I2C_DMACmd>
}
 80017d4:	bf00      	nop
 80017d6:	3708      	adds	r7, #8
 80017d8:	46bd      	mov	sp, r7
 80017da:	bd80      	pop	{r7, pc}
 80017dc:	2000003c 	.word	0x2000003c
 80017e0:	2000003d 	.word	0x2000003d
 80017e4:	40026080 	.word	0x40026080
 80017e8:	40005400 	.word	0x40005400
 80017ec:	00030001 	.word	0x00030001
 80017f0:	00070082 	.word	0x00070082
 80017f4:	00070084 	.word	0x00070084
 80017f8:	00030002 	.word	0x00030002

080017fc <initUSART2>:


// inicializacia pre USART
void initUSART2(void){
 80017fc:	b580      	push	{r7, lr}
 80017fe:	b088      	sub	sp, #32
 8001800:	af00      	add	r7, sp, #0
	RCC_AHBPeriphClockCmd(RCC_AHBPeriph_GPIOA,ENABLE);
 8001802:	2101      	movs	r1, #1
 8001804:	2001      	movs	r0, #1
 8001806:	f7ff fc03 	bl	8001010 <RCC_AHBPeriphClockCmd>
	RCC_APB1PeriphClockCmd(RCC_APB1Periph_USART2, ENABLE);
 800180a:	2101      	movs	r1, #1
 800180c:	f44f 3000 	mov.w	r0, #131072	; 0x20000
 8001810:	f7ff fc3a 	bl	8001088 <RCC_APB1PeriphClockCmd>

	// nakonfigurujeme piny pre USART
	GPIO_PinAFConfig(GPIOA, GPIO_PinSource2, GPIO_AF_USART2);
 8001814:	2207      	movs	r2, #7
 8001816:	2102      	movs	r1, #2
 8001818:	4820      	ldr	r0, [pc, #128]	; (800189c <initUSART2+0xa0>)
 800181a:	f7ff f8c1 	bl	80009a0 <GPIO_PinAFConfig>
	GPIO_PinAFConfig(GPIOA, GPIO_PinSource3, GPIO_AF_USART2);
 800181e:	2207      	movs	r2, #7
 8001820:	2103      	movs	r1, #3
 8001822:	481e      	ldr	r0, [pc, #120]	; (800189c <initUSART2+0xa0>)
 8001824:	f7ff f8bc 	bl	80009a0 <GPIO_PinAFConfig>

	// inicializacna struktura pre RX
	GPIO_InitTypeDef RXInitStr;

	RXInitStr.GPIO_Pin = GPIO_Pin_3;
 8001828:	2308      	movs	r3, #8
 800182a:	61bb      	str	r3, [r7, #24]
	RXInitStr.GPIO_Mode = GPIO_Mode_AF;
 800182c:	2302      	movs	r3, #2
 800182e:	773b      	strb	r3, [r7, #28]
	RXInitStr.GPIO_OType = GPIO_OType_PP;
 8001830:	2300      	movs	r3, #0
 8001832:	77bb      	strb	r3, [r7, #30]
	RXInitStr.GPIO_PuPd = GPIO_PuPd_NOPULL;
 8001834:	2300      	movs	r3, #0
 8001836:	77fb      	strb	r3, [r7, #31]
	RXInitStr.GPIO_Speed = GPIO_Speed_40MHz;
 8001838:	2303      	movs	r3, #3
 800183a:	777b      	strb	r3, [r7, #29]
	GPIO_Init(GPIOA,&RXInitStr);
 800183c:	f107 0318 	add.w	r3, r7, #24
 8001840:	4619      	mov	r1, r3
 8001842:	4816      	ldr	r0, [pc, #88]	; (800189c <initUSART2+0xa0>)
 8001844:	f7ff f816 	bl	8000874 <GPIO_Init>

	// inicializacna struktura pre TX
	GPIO_InitTypeDef TXInitStr;

	TXInitStr.GPIO_Pin = GPIO_Pin_2;
 8001848:	2304      	movs	r3, #4
 800184a:	613b      	str	r3, [r7, #16]
	TXInitStr.GPIO_Mode = GPIO_Mode_AF;
 800184c:	2302      	movs	r3, #2
 800184e:	753b      	strb	r3, [r7, #20]
	TXInitStr.GPIO_OType = GPIO_OType_PP;
 8001850:	2300      	movs	r3, #0
 8001852:	75bb      	strb	r3, [r7, #22]
	TXInitStr.GPIO_PuPd = GPIO_PuPd_NOPULL;
 8001854:	2300      	movs	r3, #0
 8001856:	75fb      	strb	r3, [r7, #23]
	TXInitStr.GPIO_Speed = GPIO_Speed_40MHz;
 8001858:	2303      	movs	r3, #3
 800185a:	757b      	strb	r3, [r7, #21]
	GPIO_Init(GPIOA,&TXInitStr);
 800185c:	f107 0310 	add.w	r3, r7, #16
 8001860:	4619      	mov	r1, r3
 8001862:	480e      	ldr	r0, [pc, #56]	; (800189c <initUSART2+0xa0>)
 8001864:	f7ff f806 	bl	8000874 <GPIO_Init>

	// inicializacna struktura pre USART
	USART_InitTypeDef USART_InitStructure;
	// konfiguracia USART
	USART_InitStructure.USART_BaudRate = 2*9600;	// 2x kvoli kniznici
 8001868:	f44f 4396 	mov.w	r3, #19200	; 0x4b00
 800186c:	603b      	str	r3, [r7, #0]
	USART_InitStructure.USART_WordLength = USART_WordLength_8b;
 800186e:	2300      	movs	r3, #0
 8001870:	80bb      	strh	r3, [r7, #4]
	USART_InitStructure.USART_StopBits = USART_StopBits_1;
 8001872:	2300      	movs	r3, #0
 8001874:	80fb      	strh	r3, [r7, #6]
	USART_InitStructure.USART_Parity = USART_Parity_No;
 8001876:	2300      	movs	r3, #0
 8001878:	813b      	strh	r3, [r7, #8]
	USART_InitStructure.USART_HardwareFlowControl = USART_HardwareFlowControl_None;
 800187a:	2300      	movs	r3, #0
 800187c:	81bb      	strh	r3, [r7, #12]
	USART_InitStructure.USART_Mode = USART_Mode_Rx | USART_Mode_Tx;
 800187e:	230c      	movs	r3, #12
 8001880:	817b      	strh	r3, [r7, #10]
	USART_Init(USART2, &USART_InitStructure);
 8001882:	463b      	mov	r3, r7
 8001884:	4619      	mov	r1, r3
 8001886:	4806      	ldr	r0, [pc, #24]	; (80018a0 <initUSART2+0xa4>)
 8001888:	f7ff fcf4 	bl	8001274 <USART_Init>
	USART_Cmd(USART2, ENABLE);
 800188c:	2101      	movs	r1, #1
 800188e:	4804      	ldr	r0, [pc, #16]	; (80018a0 <initUSART2+0xa4>)
 8001890:	f7ff fda4 	bl	80013dc <USART_Cmd>
}
 8001894:	bf00      	nop
 8001896:	3720      	adds	r7, #32
 8001898:	46bd      	mov	sp, r7
 800189a:	bd80      	pop	{r7, pc}
 800189c:	40020000 	.word	0x40020000
 80018a0:	40004400 	.word	0x40004400

080018a4 <diceSide>:

// na zaklade akcelerometra zistime stranu kocky
char diceSide(MPU6050_t* Sensor){
 80018a4:	b480      	push	{r7}
 80018a6:	b083      	sub	sp, #12
 80018a8:	af00      	add	r7, sp, #0
 80018aa:	6078      	str	r0, [r7, #4]
	if ( (Sensor->Akcelerometer_X > 10000) && (Sensor->Akcelerometer_Y < 10000)
 80018ac:	687b      	ldr	r3, [r7, #4]
 80018ae:	f9b3 300c 	ldrsh.w	r3, [r3, #12]
 80018b2:	f242 7210 	movw	r2, #10000	; 0x2710
 80018b6:	4293      	cmp	r3, r2
 80018b8:	dd0f      	ble.n	80018da <diceSide+0x36>
 80018ba:	687b      	ldr	r3, [r7, #4]
 80018bc:	f9b3 300e 	ldrsh.w	r3, [r3, #14]
 80018c0:	f242 720f 	movw	r2, #9999	; 0x270f
 80018c4:	4293      	cmp	r3, r2
 80018c6:	dc08      	bgt.n	80018da <diceSide+0x36>
			&& (Sensor->Akcelerometer_Z < 10000) ){
 80018c8:	687b      	ldr	r3, [r7, #4]
 80018ca:	f9b3 3010 	ldrsh.w	r3, [r3, #16]
 80018ce:	f242 720f 	movw	r2, #9999	; 0x270f
 80018d2:	4293      	cmp	r3, r2
 80018d4:	dc01      	bgt.n	80018da <diceSide+0x36>
		return 1;
 80018d6:	2301      	movs	r3, #1
 80018d8:	e06a      	b.n	80019b0 <diceSide+0x10c>
	}
	else if( (Sensor->Akcelerometer_X < -10000) && (Sensor->Akcelerometer_Y > -10000)
 80018da:	687b      	ldr	r3, [r7, #4]
 80018dc:	f9b3 300c 	ldrsh.w	r3, [r3, #12]
 80018e0:	4a36      	ldr	r2, [pc, #216]	; (80019bc <diceSide+0x118>)
 80018e2:	4293      	cmp	r3, r2
 80018e4:	da0d      	bge.n	8001902 <diceSide+0x5e>
 80018e6:	687b      	ldr	r3, [r7, #4]
 80018e8:	f9b3 300e 	ldrsh.w	r3, [r3, #14]
 80018ec:	4a34      	ldr	r2, [pc, #208]	; (80019c0 <diceSide+0x11c>)
 80018ee:	4293      	cmp	r3, r2
 80018f0:	db07      	blt.n	8001902 <diceSide+0x5e>
			&& (Sensor->Akcelerometer_Z > -10000) ){
 80018f2:	687b      	ldr	r3, [r7, #4]
 80018f4:	f9b3 3010 	ldrsh.w	r3, [r3, #16]
 80018f8:	4a31      	ldr	r2, [pc, #196]	; (80019c0 <diceSide+0x11c>)
 80018fa:	4293      	cmp	r3, r2
 80018fc:	db01      	blt.n	8001902 <diceSide+0x5e>
		return 2;
 80018fe:	2302      	movs	r3, #2
 8001900:	e056      	b.n	80019b0 <diceSide+0x10c>
	}
	else if( (Sensor->Akcelerometer_Y > 10000) && (Sensor->Akcelerometer_X < 10000)
 8001902:	687b      	ldr	r3, [r7, #4]
 8001904:	f9b3 300e 	ldrsh.w	r3, [r3, #14]
 8001908:	f242 7210 	movw	r2, #10000	; 0x2710
 800190c:	4293      	cmp	r3, r2
 800190e:	dd0f      	ble.n	8001930 <diceSide+0x8c>
 8001910:	687b      	ldr	r3, [r7, #4]
 8001912:	f9b3 300c 	ldrsh.w	r3, [r3, #12]
 8001916:	f242 720f 	movw	r2, #9999	; 0x270f
 800191a:	4293      	cmp	r3, r2
 800191c:	dc08      	bgt.n	8001930 <diceSide+0x8c>
			&& (Sensor->Akcelerometer_Z < 10000) ){
 800191e:	687b      	ldr	r3, [r7, #4]
 8001920:	f9b3 3010 	ldrsh.w	r3, [r3, #16]
 8001924:	f242 720f 	movw	r2, #9999	; 0x270f
 8001928:	4293      	cmp	r3, r2
 800192a:	dc01      	bgt.n	8001930 <diceSide+0x8c>
		return 3;
 800192c:	2303      	movs	r3, #3
 800192e:	e03f      	b.n	80019b0 <diceSide+0x10c>
	}
	else if( (Sensor->Akcelerometer_Y < -10000) && (Sensor->Akcelerometer_X > -10000)
 8001930:	687b      	ldr	r3, [r7, #4]
 8001932:	f9b3 300e 	ldrsh.w	r3, [r3, #14]
 8001936:	4a21      	ldr	r2, [pc, #132]	; (80019bc <diceSide+0x118>)
 8001938:	4293      	cmp	r3, r2
 800193a:	da0d      	bge.n	8001958 <diceSide+0xb4>
 800193c:	687b      	ldr	r3, [r7, #4]
 800193e:	f9b3 300c 	ldrsh.w	r3, [r3, #12]
 8001942:	4a1f      	ldr	r2, [pc, #124]	; (80019c0 <diceSide+0x11c>)
 8001944:	4293      	cmp	r3, r2
 8001946:	db07      	blt.n	8001958 <diceSide+0xb4>
			&& (Sensor->Akcelerometer_Z > -10000) ){
 8001948:	687b      	ldr	r3, [r7, #4]
 800194a:	f9b3 3010 	ldrsh.w	r3, [r3, #16]
 800194e:	4a1c      	ldr	r2, [pc, #112]	; (80019c0 <diceSide+0x11c>)
 8001950:	4293      	cmp	r3, r2
 8001952:	db01      	blt.n	8001958 <diceSide+0xb4>
		return 4;
 8001954:	2304      	movs	r3, #4
 8001956:	e02b      	b.n	80019b0 <diceSide+0x10c>
	}
	else if( (Sensor->Akcelerometer_Z > 10000) && (Sensor->Akcelerometer_X < 10000)
 8001958:	687b      	ldr	r3, [r7, #4]
 800195a:	f9b3 3010 	ldrsh.w	r3, [r3, #16]
 800195e:	f242 7210 	movw	r2, #10000	; 0x2710
 8001962:	4293      	cmp	r3, r2
 8001964:	dd0f      	ble.n	8001986 <diceSide+0xe2>
 8001966:	687b      	ldr	r3, [r7, #4]
 8001968:	f9b3 300c 	ldrsh.w	r3, [r3, #12]
 800196c:	f242 720f 	movw	r2, #9999	; 0x270f
 8001970:	4293      	cmp	r3, r2
 8001972:	dc08      	bgt.n	8001986 <diceSide+0xe2>
			&& (Sensor->Akcelerometer_Y < 10000) ){
 8001974:	687b      	ldr	r3, [r7, #4]
 8001976:	f9b3 300e 	ldrsh.w	r3, [r3, #14]
 800197a:	f242 720f 	movw	r2, #9999	; 0x270f
 800197e:	4293      	cmp	r3, r2
 8001980:	dc01      	bgt.n	8001986 <diceSide+0xe2>
		return 5;
 8001982:	2305      	movs	r3, #5
 8001984:	e014      	b.n	80019b0 <diceSide+0x10c>
	}
	else if( (Sensor->Akcelerometer_Z < -10000) && (Sensor->Akcelerometer_X > -10000)
 8001986:	687b      	ldr	r3, [r7, #4]
 8001988:	f9b3 3010 	ldrsh.w	r3, [r3, #16]
 800198c:	4a0b      	ldr	r2, [pc, #44]	; (80019bc <diceSide+0x118>)
 800198e:	4293      	cmp	r3, r2
 8001990:	da0d      	bge.n	80019ae <diceSide+0x10a>
 8001992:	687b      	ldr	r3, [r7, #4]
 8001994:	f9b3 300c 	ldrsh.w	r3, [r3, #12]
 8001998:	4a09      	ldr	r2, [pc, #36]	; (80019c0 <diceSide+0x11c>)
 800199a:	4293      	cmp	r3, r2
 800199c:	db07      	blt.n	80019ae <diceSide+0x10a>
			&& (Sensor->Akcelerometer_Y > -10000) ){
 800199e:	687b      	ldr	r3, [r7, #4]
 80019a0:	f9b3 300e 	ldrsh.w	r3, [r3, #14]
 80019a4:	4a06      	ldr	r2, [pc, #24]	; (80019c0 <diceSide+0x11c>)
 80019a6:	4293      	cmp	r3, r2
 80019a8:	db01      	blt.n	80019ae <diceSide+0x10a>
		return 6;
 80019aa:	2306      	movs	r3, #6
 80019ac:	e000      	b.n	80019b0 <diceSide+0x10c>
	}
	else{
		return -1;
 80019ae:	23ff      	movs	r3, #255	; 0xff
	}
}
 80019b0:	4618      	mov	r0, r3
 80019b2:	370c      	adds	r7, #12
 80019b4:	46bd      	mov	sp, r7
 80019b6:	bc80      	pop	{r7}
 80019b8:	4770      	bx	lr
 80019ba:	bf00      	nop
 80019bc:	ffffd8f0 	.word	0xffffd8f0
 80019c0:	ffffd8f1 	.word	0xffffd8f1

080019c4 <sendUSART2>:

// posli string po seriovej zbernici USART2
void sendUSART2(char *s){
 80019c4:	b580      	push	{r7, lr}
 80019c6:	b082      	sub	sp, #8
 80019c8:	af00      	add	r7, sp, #0
 80019ca:	6078      	str	r0, [r7, #4]
  // kym sme neposlali vsetky znaky
  while(*s){
 80019cc:	e010      	b.n	80019f0 <sendUSART2+0x2c>
	// pockaj kym mozes vysielat
    while(USART_GetFlagStatus(USART2, USART_FLAG_TXE) == RESET);
 80019ce:	bf00      	nop
 80019d0:	2180      	movs	r1, #128	; 0x80
 80019d2:	480b      	ldr	r0, [pc, #44]	; (8001a00 <sendUSART2+0x3c>)
 80019d4:	f7ff fd34 	bl	8001440 <USART_GetFlagStatus>
 80019d8:	4603      	mov	r3, r0
 80019da:	2b00      	cmp	r3, #0
 80019dc:	d0f8      	beq.n	80019d0 <sendUSART2+0xc>
    // posli znak na zbernicu a posun smernik na dalsi znak
    USART_SendData(USART2, *s++);
 80019de:	687b      	ldr	r3, [r7, #4]
 80019e0:	1c5a      	adds	r2, r3, #1
 80019e2:	607a      	str	r2, [r7, #4]
 80019e4:	781b      	ldrb	r3, [r3, #0]
 80019e6:	b29b      	uxth	r3, r3
 80019e8:	4619      	mov	r1, r3
 80019ea:	4805      	ldr	r0, [pc, #20]	; (8001a00 <sendUSART2+0x3c>)
 80019ec:	f7ff fd16 	bl	800141c <USART_SendData>
}

// posli string po seriovej zbernici USART2
void sendUSART2(char *s){
  // kym sme neposlali vsetky znaky
  while(*s){
 80019f0:	687b      	ldr	r3, [r7, #4]
 80019f2:	781b      	ldrb	r3, [r3, #0]
 80019f4:	2b00      	cmp	r3, #0
 80019f6:	d1ea      	bne.n	80019ce <sendUSART2+0xa>
	// pockaj kym mozes vysielat
    while(USART_GetFlagStatus(USART2, USART_FLAG_TXE) == RESET);
    // posli znak na zbernicu a posun smernik na dalsi znak
    USART_SendData(USART2, *s++);
  }
}
 80019f8:	bf00      	nop
 80019fa:	3708      	adds	r7, #8
 80019fc:	46bd      	mov	sp, r7
 80019fe:	bd80      	pop	{r7, pc}
 8001a00:	40004400 	.word	0x40004400

08001a04 <clearDisplay>:


void clearDisplay(uint16_t colour){
 8001a04:	b580      	push	{r7, lr}
 8001a06:	b084      	sub	sp, #16
 8001a08:	af02      	add	r7, sp, #8
 8001a0a:	4603      	mov	r3, r0
 8001a0c:	80fb      	strh	r3, [r7, #6]
	lcdFilledRectangle(0,0,129,130,colour);
 8001a0e:	88fb      	ldrh	r3, [r7, #6]
 8001a10:	9300      	str	r3, [sp, #0]
 8001a12:	2382      	movs	r3, #130	; 0x82
 8001a14:	2281      	movs	r2, #129	; 0x81
 8001a16:	2100      	movs	r1, #0
 8001a18:	2000      	movs	r0, #0
 8001a1a:	f000 fbe9 	bl	80021f0 <lcdFilledRectangle>
}
 8001a1e:	bf00      	nop
 8001a20:	3708      	adds	r7, #8
 8001a22:	46bd      	mov	sp, r7
 8001a24:	bd80      	pop	{r7, pc}
 8001a26:	bf00      	nop

08001a28 <lcdFilledCircle>:


void lcdFilledCircle(int16_t xCentre, int16_t yCentre, int16_t radius, uint16_t colour)
{
 8001a28:	b590      	push	{r4, r7, lr}
 8001a2a:	b087      	sub	sp, #28
 8001a2c:	af00      	add	r7, sp, #0
 8001a2e:	4604      	mov	r4, r0
 8001a30:	4608      	mov	r0, r1
 8001a32:	4611      	mov	r1, r2
 8001a34:	461a      	mov	r2, r3
 8001a36:	4623      	mov	r3, r4
 8001a38:	80fb      	strh	r3, [r7, #6]
 8001a3a:	4603      	mov	r3, r0
 8001a3c:	80bb      	strh	r3, [r7, #4]
 8001a3e:	460b      	mov	r3, r1
 8001a40:	807b      	strh	r3, [r7, #2]
 8001a42:	4613      	mov	r3, r2
 8001a44:	803b      	strh	r3, [r7, #0]
	int16_t x = 0, y = radius;
 8001a46:	2300      	movs	r3, #0
 8001a48:	82fb      	strh	r3, [r7, #22]
 8001a4a:	887b      	ldrh	r3, [r7, #2]
 8001a4c:	82bb      	strh	r3, [r7, #20]
	int16_t tmp_radius = radius;
 8001a4e:	887b      	ldrh	r3, [r7, #2]
 8001a50:	827b      	strh	r3, [r7, #18]
	int16_t d = 0;
 8001a52:	2300      	movs	r3, #0
 8001a54:	823b      	strh	r3, [r7, #16]

	for(int i = 0; i < radius; i++){
 8001a56:	2300      	movs	r3, #0
 8001a58:	60fb      	str	r3, [r7, #12]
 8001a5a:	e0c1      	b.n	8001be0 <lcdFilledCircle+0x1b8>
		d = 3 - (2 * tmp_radius);
 8001a5c:	8a7b      	ldrh	r3, [r7, #18]
 8001a5e:	005b      	lsls	r3, r3, #1
 8001a60:	b29b      	uxth	r3, r3
 8001a62:	f1c3 0303 	rsb	r3, r3, #3
 8001a66:	b29b      	uxth	r3, r3
 8001a68:	823b      	strh	r3, [r7, #16]
		y = tmp_radius;
 8001a6a:	8a7b      	ldrh	r3, [r7, #18]
 8001a6c:	82bb      	strh	r3, [r7, #20]
		x = 0;
 8001a6e:	2300      	movs	r3, #0
 8001a70:	82fb      	strh	r3, [r7, #22]
		   while(x <= y)
 8001a72:	e0a5      	b.n	8001bc0 <lcdFilledCircle+0x198>
			{
				lcdPlot(xCentre + x, yCentre + y, colour);
 8001a74:	88fb      	ldrh	r3, [r7, #6]
 8001a76:	b2da      	uxtb	r2, r3
 8001a78:	8afb      	ldrh	r3, [r7, #22]
 8001a7a:	b2db      	uxtb	r3, r3
 8001a7c:	4413      	add	r3, r2
 8001a7e:	b2d8      	uxtb	r0, r3
 8001a80:	88bb      	ldrh	r3, [r7, #4]
 8001a82:	b2da      	uxtb	r2, r3
 8001a84:	8abb      	ldrh	r3, [r7, #20]
 8001a86:	b2db      	uxtb	r3, r3
 8001a88:	4413      	add	r3, r2
 8001a8a:	b2db      	uxtb	r3, r3
 8001a8c:	883a      	ldrh	r2, [r7, #0]
 8001a8e:	4619      	mov	r1, r3
 8001a90:	f000 fa80 	bl	8001f94 <lcdPlot>
				lcdPlot(xCentre + y, yCentre + x, colour);
 8001a94:	88fb      	ldrh	r3, [r7, #6]
 8001a96:	b2da      	uxtb	r2, r3
 8001a98:	8abb      	ldrh	r3, [r7, #20]
 8001a9a:	b2db      	uxtb	r3, r3
 8001a9c:	4413      	add	r3, r2
 8001a9e:	b2d8      	uxtb	r0, r3
 8001aa0:	88bb      	ldrh	r3, [r7, #4]
 8001aa2:	b2da      	uxtb	r2, r3
 8001aa4:	8afb      	ldrh	r3, [r7, #22]
 8001aa6:	b2db      	uxtb	r3, r3
 8001aa8:	4413      	add	r3, r2
 8001aaa:	b2db      	uxtb	r3, r3
 8001aac:	883a      	ldrh	r2, [r7, #0]
 8001aae:	4619      	mov	r1, r3
 8001ab0:	f000 fa70 	bl	8001f94 <lcdPlot>
				lcdPlot(xCentre - x, yCentre + y, colour);
 8001ab4:	88fb      	ldrh	r3, [r7, #6]
 8001ab6:	b2da      	uxtb	r2, r3
 8001ab8:	8afb      	ldrh	r3, [r7, #22]
 8001aba:	b2db      	uxtb	r3, r3
 8001abc:	1ad3      	subs	r3, r2, r3
 8001abe:	b2d8      	uxtb	r0, r3
 8001ac0:	88bb      	ldrh	r3, [r7, #4]
 8001ac2:	b2da      	uxtb	r2, r3
 8001ac4:	8abb      	ldrh	r3, [r7, #20]
 8001ac6:	b2db      	uxtb	r3, r3
 8001ac8:	4413      	add	r3, r2
 8001aca:	b2db      	uxtb	r3, r3
 8001acc:	883a      	ldrh	r2, [r7, #0]
 8001ace:	4619      	mov	r1, r3
 8001ad0:	f000 fa60 	bl	8001f94 <lcdPlot>
				lcdPlot(xCentre + y, yCentre - x, colour);
 8001ad4:	88fb      	ldrh	r3, [r7, #6]
 8001ad6:	b2da      	uxtb	r2, r3
 8001ad8:	8abb      	ldrh	r3, [r7, #20]
 8001ada:	b2db      	uxtb	r3, r3
 8001adc:	4413      	add	r3, r2
 8001ade:	b2d8      	uxtb	r0, r3
 8001ae0:	88bb      	ldrh	r3, [r7, #4]
 8001ae2:	b2da      	uxtb	r2, r3
 8001ae4:	8afb      	ldrh	r3, [r7, #22]
 8001ae6:	b2db      	uxtb	r3, r3
 8001ae8:	1ad3      	subs	r3, r2, r3
 8001aea:	b2db      	uxtb	r3, r3
 8001aec:	883a      	ldrh	r2, [r7, #0]
 8001aee:	4619      	mov	r1, r3
 8001af0:	f000 fa50 	bl	8001f94 <lcdPlot>
				lcdPlot(xCentre - x, yCentre - y, colour);
 8001af4:	88fb      	ldrh	r3, [r7, #6]
 8001af6:	b2da      	uxtb	r2, r3
 8001af8:	8afb      	ldrh	r3, [r7, #22]
 8001afa:	b2db      	uxtb	r3, r3
 8001afc:	1ad3      	subs	r3, r2, r3
 8001afe:	b2d8      	uxtb	r0, r3
 8001b00:	88bb      	ldrh	r3, [r7, #4]
 8001b02:	b2da      	uxtb	r2, r3
 8001b04:	8abb      	ldrh	r3, [r7, #20]
 8001b06:	b2db      	uxtb	r3, r3
 8001b08:	1ad3      	subs	r3, r2, r3
 8001b0a:	b2db      	uxtb	r3, r3
 8001b0c:	883a      	ldrh	r2, [r7, #0]
 8001b0e:	4619      	mov	r1, r3
 8001b10:	f000 fa40 	bl	8001f94 <lcdPlot>
				lcdPlot(xCentre - y, yCentre - x, colour);
 8001b14:	88fb      	ldrh	r3, [r7, #6]
 8001b16:	b2da      	uxtb	r2, r3
 8001b18:	8abb      	ldrh	r3, [r7, #20]
 8001b1a:	b2db      	uxtb	r3, r3
 8001b1c:	1ad3      	subs	r3, r2, r3
 8001b1e:	b2d8      	uxtb	r0, r3
 8001b20:	88bb      	ldrh	r3, [r7, #4]
 8001b22:	b2da      	uxtb	r2, r3
 8001b24:	8afb      	ldrh	r3, [r7, #22]
 8001b26:	b2db      	uxtb	r3, r3
 8001b28:	1ad3      	subs	r3, r2, r3
 8001b2a:	b2db      	uxtb	r3, r3
 8001b2c:	883a      	ldrh	r2, [r7, #0]
 8001b2e:	4619      	mov	r1, r3
 8001b30:	f000 fa30 	bl	8001f94 <lcdPlot>
				lcdPlot(xCentre + x, yCentre - y, colour);
 8001b34:	88fb      	ldrh	r3, [r7, #6]
 8001b36:	b2da      	uxtb	r2, r3
 8001b38:	8afb      	ldrh	r3, [r7, #22]
 8001b3a:	b2db      	uxtb	r3, r3
 8001b3c:	4413      	add	r3, r2
 8001b3e:	b2d8      	uxtb	r0, r3
 8001b40:	88bb      	ldrh	r3, [r7, #4]
 8001b42:	b2da      	uxtb	r2, r3
 8001b44:	8abb      	ldrh	r3, [r7, #20]
 8001b46:	b2db      	uxtb	r3, r3
 8001b48:	1ad3      	subs	r3, r2, r3
 8001b4a:	b2db      	uxtb	r3, r3
 8001b4c:	883a      	ldrh	r2, [r7, #0]
 8001b4e:	4619      	mov	r1, r3
 8001b50:	f000 fa20 	bl	8001f94 <lcdPlot>
				lcdPlot(xCentre - y, yCentre + x, colour);
 8001b54:	88fb      	ldrh	r3, [r7, #6]
 8001b56:	b2da      	uxtb	r2, r3
 8001b58:	8abb      	ldrh	r3, [r7, #20]
 8001b5a:	b2db      	uxtb	r3, r3
 8001b5c:	1ad3      	subs	r3, r2, r3
 8001b5e:	b2d8      	uxtb	r0, r3
 8001b60:	88bb      	ldrh	r3, [r7, #4]
 8001b62:	b2da      	uxtb	r2, r3
 8001b64:	8afb      	ldrh	r3, [r7, #22]
 8001b66:	b2db      	uxtb	r3, r3
 8001b68:	4413      	add	r3, r2
 8001b6a:	b2db      	uxtb	r3, r3
 8001b6c:	883a      	ldrh	r2, [r7, #0]
 8001b6e:	4619      	mov	r1, r3
 8001b70:	f000 fa10 	bl	8001f94 <lcdPlot>

				if (d < 0) d += (4 * x) + 6;
 8001b74:	f9b7 3010 	ldrsh.w	r3, [r7, #16]
 8001b78:	2b00      	cmp	r3, #0
 8001b7a:	da09      	bge.n	8001b90 <lcdFilledCircle+0x168>
 8001b7c:	8afb      	ldrh	r3, [r7, #22]
 8001b7e:	009b      	lsls	r3, r3, #2
 8001b80:	b29a      	uxth	r2, r3
 8001b82:	8a3b      	ldrh	r3, [r7, #16]
 8001b84:	4413      	add	r3, r2
 8001b86:	b29b      	uxth	r3, r3
 8001b88:	3306      	adds	r3, #6
 8001b8a:	b29b      	uxth	r3, r3
 8001b8c:	823b      	strh	r3, [r7, #16]
 8001b8e:	e011      	b.n	8001bb4 <lcdFilledCircle+0x18c>
				else
				{
					d += (4 * (x - y)) + 10;
 8001b90:	f9b7 2016 	ldrsh.w	r2, [r7, #22]
 8001b94:	f9b7 3014 	ldrsh.w	r3, [r7, #20]
 8001b98:	1ad3      	subs	r3, r2, r3
 8001b9a:	b29b      	uxth	r3, r3
 8001b9c:	009b      	lsls	r3, r3, #2
 8001b9e:	b29a      	uxth	r2, r3
 8001ba0:	8a3b      	ldrh	r3, [r7, #16]
 8001ba2:	4413      	add	r3, r2
 8001ba4:	b29b      	uxth	r3, r3
 8001ba6:	330a      	adds	r3, #10
 8001ba8:	b29b      	uxth	r3, r3
 8001baa:	823b      	strh	r3, [r7, #16]
					y -= 1;
 8001bac:	8abb      	ldrh	r3, [r7, #20]
 8001bae:	3b01      	subs	r3, #1
 8001bb0:	b29b      	uxth	r3, r3
 8001bb2:	82bb      	strh	r3, [r7, #20]
				}

				x++;
 8001bb4:	f9b7 3016 	ldrsh.w	r3, [r7, #22]
 8001bb8:	b29b      	uxth	r3, r3
 8001bba:	3301      	adds	r3, #1
 8001bbc:	b29b      	uxth	r3, r3
 8001bbe:	82fb      	strh	r3, [r7, #22]

	for(int i = 0; i < radius; i++){
		d = 3 - (2 * tmp_radius);
		y = tmp_radius;
		x = 0;
		   while(x <= y)
 8001bc0:	f9b7 2016 	ldrsh.w	r2, [r7, #22]
 8001bc4:	f9b7 3014 	ldrsh.w	r3, [r7, #20]
 8001bc8:	429a      	cmp	r2, r3
 8001bca:	f77f af53 	ble.w	8001a74 <lcdFilledCircle+0x4c>
					y -= 1;
				}

				x++;
			}
		   tmp_radius--;
 8001bce:	f9b7 3012 	ldrsh.w	r3, [r7, #18]
 8001bd2:	b29b      	uxth	r3, r3
 8001bd4:	3b01      	subs	r3, #1
 8001bd6:	b29b      	uxth	r3, r3
 8001bd8:	827b      	strh	r3, [r7, #18]
{
	int16_t x = 0, y = radius;
	int16_t tmp_radius = radius;
	int16_t d = 0;

	for(int i = 0; i < radius; i++){
 8001bda:	68fb      	ldr	r3, [r7, #12]
 8001bdc:	3301      	adds	r3, #1
 8001bde:	60fb      	str	r3, [r7, #12]
 8001be0:	f9b7 2002 	ldrsh.w	r2, [r7, #2]
 8001be4:	68fb      	ldr	r3, [r7, #12]
 8001be6:	429a      	cmp	r2, r3
 8001be8:	f73f af38 	bgt.w	8001a5c <lcdFilledCircle+0x34>

				x++;
			}
		   tmp_radius--;
	}
}
 8001bec:	bf00      	nop
 8001bee:	371c      	adds	r7, #28
 8001bf0:	46bd      	mov	sp, r7
 8001bf2:	bd90      	pop	{r4, r7, pc}

08001bf4 <lcdMriezka3x3>:


void lcdMriezka3x3(int16_t x0, int16_t y0, uint16_t cislo, uint16_t colour1, uint16_t colour2){
 8001bf4:	b590      	push	{r4, r7, lr}
 8001bf6:	b085      	sub	sp, #20
 8001bf8:	af00      	add	r7, sp, #0
 8001bfa:	4604      	mov	r4, r0
 8001bfc:	4608      	mov	r0, r1
 8001bfe:	4611      	mov	r1, r2
 8001c00:	461a      	mov	r2, r3
 8001c02:	4623      	mov	r3, r4
 8001c04:	80fb      	strh	r3, [r7, #6]
 8001c06:	4603      	mov	r3, r0
 8001c08:	80bb      	strh	r3, [r7, #4]
 8001c0a:	460b      	mov	r3, r1
 8001c0c:	807b      	strh	r3, [r7, #2]
 8001c0e:	4613      	mov	r3, r2
 8001c10:	803b      	strh	r3, [r7, #0]
	/* 00 01 02
	 * 10 11 12
	 * 20 21 22
	 */

	for(i = 0; i < 3; i++){
 8001c12:	2300      	movs	r3, #0
 8001c14:	81fb      	strh	r3, [r7, #14]
 8001c16:	e092      	b.n	8001d3e <lcdMriezka3x3+0x14a>
		for(j = 0; j<3; j++){
 8001c18:	2300      	movs	r3, #0
 8001c1a:	81bb      	strh	r3, [r7, #12]
 8001c1c:	e088      	b.n	8001d30 <lcdMriezka3x3+0x13c>
			switch(cislo) {
 8001c1e:	887b      	ldrh	r3, [r7, #2]
 8001c20:	3b01      	subs	r3, #1
 8001c22:	2b05      	cmp	r3, #5
 8001c24:	d869      	bhi.n	8001cfa <lcdMriezka3x3+0x106>
 8001c26:	a201      	add	r2, pc, #4	; (adr r2, 8001c2c <lcdMriezka3x3+0x38>)
 8001c28:	f852 f023 	ldr.w	pc, [r2, r3, lsl #2]
 8001c2c:	08001c45 	.word	0x08001c45
 8001c30:	08001c5d 	.word	0x08001c5d
 8001c34:	08001c81 	.word	0x08001c81
 8001c38:	08001c95 	.word	0x08001c95
 8001c3c:	08001cb9 	.word	0x08001cb9
 8001c40:	08001ce9 	.word	0x08001ce9

			   case 1:
			      if(i == 1 && j == 1) farba = colour1;
 8001c44:	89fb      	ldrh	r3, [r7, #14]
 8001c46:	2b01      	cmp	r3, #1
 8001c48:	d105      	bne.n	8001c56 <lcdMriezka3x3+0x62>
 8001c4a:	89bb      	ldrh	r3, [r7, #12]
 8001c4c:	2b01      	cmp	r3, #1
 8001c4e:	d102      	bne.n	8001c56 <lcdMriezka3x3+0x62>
 8001c50:	883b      	ldrh	r3, [r7, #0]
 8001c52:	817b      	strh	r3, [r7, #10]
				  else farba = colour2;
			      break;
 8001c54:	e051      	b.n	8001cfa <lcdMriezka3x3+0x106>
		for(j = 0; j<3; j++){
			switch(cislo) {

			   case 1:
			      if(i == 1 && j == 1) farba = colour1;
				  else farba = colour2;
 8001c56:	8c3b      	ldrh	r3, [r7, #32]
 8001c58:	817b      	strh	r3, [r7, #10]
			      break;
 8001c5a:	e04e      	b.n	8001cfa <lcdMriezka3x3+0x106>
			   case 2:
				  if((i == 0 && j == 0)||(i == 2 && j == 2)) farba = colour1;
 8001c5c:	89fb      	ldrh	r3, [r7, #14]
 8001c5e:	2b00      	cmp	r3, #0
 8001c60:	d102      	bne.n	8001c68 <lcdMriezka3x3+0x74>
 8001c62:	89bb      	ldrh	r3, [r7, #12]
 8001c64:	2b00      	cmp	r3, #0
 8001c66:	d005      	beq.n	8001c74 <lcdMriezka3x3+0x80>
 8001c68:	89fb      	ldrh	r3, [r7, #14]
 8001c6a:	2b02      	cmp	r3, #2
 8001c6c:	d105      	bne.n	8001c7a <lcdMriezka3x3+0x86>
 8001c6e:	89bb      	ldrh	r3, [r7, #12]
 8001c70:	2b02      	cmp	r3, #2
 8001c72:	d102      	bne.n	8001c7a <lcdMriezka3x3+0x86>
 8001c74:	883b      	ldrh	r3, [r7, #0]
 8001c76:	817b      	strh	r3, [r7, #10]
				  else farba = colour2;
			      break;
 8001c78:	e03f      	b.n	8001cfa <lcdMriezka3x3+0x106>
			      if(i == 1 && j == 1) farba = colour1;
				  else farba = colour2;
			      break;
			   case 2:
				  if((i == 0 && j == 0)||(i == 2 && j == 2)) farba = colour1;
				  else farba = colour2;
 8001c7a:	8c3b      	ldrh	r3, [r7, #32]
 8001c7c:	817b      	strh	r3, [r7, #10]
			      break;
 8001c7e:	e03c      	b.n	8001cfa <lcdMriezka3x3+0x106>
			   case 3:
				  if(i == j) farba = colour1;
 8001c80:	89fa      	ldrh	r2, [r7, #14]
 8001c82:	89bb      	ldrh	r3, [r7, #12]
 8001c84:	429a      	cmp	r2, r3
 8001c86:	d102      	bne.n	8001c8e <lcdMriezka3x3+0x9a>
 8001c88:	883b      	ldrh	r3, [r7, #0]
 8001c8a:	817b      	strh	r3, [r7, #10]
				  else farba = colour2;
				  break;
 8001c8c:	e035      	b.n	8001cfa <lcdMriezka3x3+0x106>
				  if((i == 0 && j == 0)||(i == 2 && j == 2)) farba = colour1;
				  else farba = colour2;
			      break;
			   case 3:
				  if(i == j) farba = colour1;
				  else farba = colour2;
 8001c8e:	8c3b      	ldrh	r3, [r7, #32]
 8001c90:	817b      	strh	r3, [r7, #10]
				  break;
 8001c92:	e032      	b.n	8001cfa <lcdMriezka3x3+0x106>
			   case 4:
			      if((i == 0 && j != 1) || (i == 2 && j != 1)) farba = colour1;
 8001c94:	89fb      	ldrh	r3, [r7, #14]
 8001c96:	2b00      	cmp	r3, #0
 8001c98:	d102      	bne.n	8001ca0 <lcdMriezka3x3+0xac>
 8001c9a:	89bb      	ldrh	r3, [r7, #12]
 8001c9c:	2b01      	cmp	r3, #1
 8001c9e:	d105      	bne.n	8001cac <lcdMriezka3x3+0xb8>
 8001ca0:	89fb      	ldrh	r3, [r7, #14]
 8001ca2:	2b02      	cmp	r3, #2
 8001ca4:	d105      	bne.n	8001cb2 <lcdMriezka3x3+0xbe>
 8001ca6:	89bb      	ldrh	r3, [r7, #12]
 8001ca8:	2b01      	cmp	r3, #1
 8001caa:	d002      	beq.n	8001cb2 <lcdMriezka3x3+0xbe>
 8001cac:	883b      	ldrh	r3, [r7, #0]
 8001cae:	817b      	strh	r3, [r7, #10]
				  else farba = colour2;
				  break;
 8001cb0:	e023      	b.n	8001cfa <lcdMriezka3x3+0x106>
				  if(i == j) farba = colour1;
				  else farba = colour2;
				  break;
			   case 4:
			      if((i == 0 && j != 1) || (i == 2 && j != 1)) farba = colour1;
				  else farba = colour2;
 8001cb2:	8c3b      	ldrh	r3, [r7, #32]
 8001cb4:	817b      	strh	r3, [r7, #10]
				  break;
 8001cb6:	e020      	b.n	8001cfa <lcdMriezka3x3+0x106>
			   case 5:
				  if((i == 0 && j != 1) || (i == 2 && j != 1) || (i == 1 && j == 1)) farba = colour1;
 8001cb8:	89fb      	ldrh	r3, [r7, #14]
 8001cba:	2b00      	cmp	r3, #0
 8001cbc:	d102      	bne.n	8001cc4 <lcdMriezka3x3+0xd0>
 8001cbe:	89bb      	ldrh	r3, [r7, #12]
 8001cc0:	2b01      	cmp	r3, #1
 8001cc2:	d10b      	bne.n	8001cdc <lcdMriezka3x3+0xe8>
 8001cc4:	89fb      	ldrh	r3, [r7, #14]
 8001cc6:	2b02      	cmp	r3, #2
 8001cc8:	d102      	bne.n	8001cd0 <lcdMriezka3x3+0xdc>
 8001cca:	89bb      	ldrh	r3, [r7, #12]
 8001ccc:	2b01      	cmp	r3, #1
 8001cce:	d105      	bne.n	8001cdc <lcdMriezka3x3+0xe8>
 8001cd0:	89fb      	ldrh	r3, [r7, #14]
 8001cd2:	2b01      	cmp	r3, #1
 8001cd4:	d105      	bne.n	8001ce2 <lcdMriezka3x3+0xee>
 8001cd6:	89bb      	ldrh	r3, [r7, #12]
 8001cd8:	2b01      	cmp	r3, #1
 8001cda:	d102      	bne.n	8001ce2 <lcdMriezka3x3+0xee>
 8001cdc:	883b      	ldrh	r3, [r7, #0]
 8001cde:	817b      	strh	r3, [r7, #10]
				  else farba = colour2;
				  break;
 8001ce0:	e00b      	b.n	8001cfa <lcdMriezka3x3+0x106>
			      if((i == 0 && j != 1) || (i == 2 && j != 1)) farba = colour1;
				  else farba = colour2;
				  break;
			   case 5:
				  if((i == 0 && j != 1) || (i == 2 && j != 1) || (i == 1 && j == 1)) farba = colour1;
				  else farba = colour2;
 8001ce2:	8c3b      	ldrh	r3, [r7, #32]
 8001ce4:	817b      	strh	r3, [r7, #10]
				  break;
 8001ce6:	e008      	b.n	8001cfa <lcdMriezka3x3+0x106>
			   case 6:
				  if(j != 1) farba = colour1;
 8001ce8:	89bb      	ldrh	r3, [r7, #12]
 8001cea:	2b01      	cmp	r3, #1
 8001cec:	d002      	beq.n	8001cf4 <lcdMriezka3x3+0x100>
 8001cee:	883b      	ldrh	r3, [r7, #0]
 8001cf0:	817b      	strh	r3, [r7, #10]
				  else farba = colour2;
				  break;
 8001cf2:	e001      	b.n	8001cf8 <lcdMriezka3x3+0x104>
				  if((i == 0 && j != 1) || (i == 2 && j != 1) || (i == 1 && j == 1)) farba = colour1;
				  else farba = colour2;
				  break;
			   case 6:
				  if(j != 1) farba = colour1;
				  else farba = colour2;
 8001cf4:	8c3b      	ldrh	r3, [r7, #32]
 8001cf6:	817b      	strh	r3, [r7, #10]
				  break;
 8001cf8:	bf00      	nop
			}

			//lcdStvorcek(x0 + j*10, y0 +i*10, farba);
			lcdFilledCircle(x0 + j*10, y0 +i*10, 3, farba);
 8001cfa:	89bb      	ldrh	r3, [r7, #12]
 8001cfc:	461a      	mov	r2, r3
 8001cfe:	0092      	lsls	r2, r2, #2
 8001d00:	4413      	add	r3, r2
 8001d02:	005b      	lsls	r3, r3, #1
 8001d04:	b29a      	uxth	r2, r3
 8001d06:	88fb      	ldrh	r3, [r7, #6]
 8001d08:	4413      	add	r3, r2
 8001d0a:	b29b      	uxth	r3, r3
 8001d0c:	b218      	sxth	r0, r3
 8001d0e:	89fb      	ldrh	r3, [r7, #14]
 8001d10:	461a      	mov	r2, r3
 8001d12:	0092      	lsls	r2, r2, #2
 8001d14:	4413      	add	r3, r2
 8001d16:	005b      	lsls	r3, r3, #1
 8001d18:	b29a      	uxth	r2, r3
 8001d1a:	88bb      	ldrh	r3, [r7, #4]
 8001d1c:	4413      	add	r3, r2
 8001d1e:	b29b      	uxth	r3, r3
 8001d20:	b219      	sxth	r1, r3
 8001d22:	897b      	ldrh	r3, [r7, #10]
 8001d24:	2203      	movs	r2, #3
 8001d26:	f7ff fe7f 	bl	8001a28 <lcdFilledCircle>
	 * 10 11 12
	 * 20 21 22
	 */

	for(i = 0; i < 3; i++){
		for(j = 0; j<3; j++){
 8001d2a:	89bb      	ldrh	r3, [r7, #12]
 8001d2c:	3301      	adds	r3, #1
 8001d2e:	81bb      	strh	r3, [r7, #12]
 8001d30:	89bb      	ldrh	r3, [r7, #12]
 8001d32:	2b02      	cmp	r3, #2
 8001d34:	f67f af73 	bls.w	8001c1e <lcdMriezka3x3+0x2a>
	/* 00 01 02
	 * 10 11 12
	 * 20 21 22
	 */

	for(i = 0; i < 3; i++){
 8001d38:	89fb      	ldrh	r3, [r7, #14]
 8001d3a:	3301      	adds	r3, #1
 8001d3c:	81fb      	strh	r3, [r7, #14]
 8001d3e:	89fb      	ldrh	r3, [r7, #14]
 8001d40:	2b02      	cmp	r3, #2
 8001d42:	f67f af69 	bls.w	8001c18 <lcdMriezka3x3+0x24>

			//lcdStvorcek(x0 + j*10, y0 +i*10, farba);
			lcdFilledCircle(x0 + j*10, y0 +i*10, 3, farba);
		}
	}
}
 8001d46:	bf00      	nop
 8001d48:	3714      	adds	r7, #20
 8001d4a:	46bd      	mov	sp, r7
 8001d4c:	bd90      	pop	{r4, r7, pc}
 8001d4e:	bf00      	nop

08001d50 <lcdReset>:

// Low-level LCD driving functions --------------------------------------------------------------------------

// Reset the LCD hardware
void lcdReset(void)
{
 8001d50:	b580      	push	{r7, lr}
 8001d52:	af00      	add	r7, sp, #0
	// Reset pin is active low (0 = reset, 1 = ready)
	res_reset();
 8001d54:	f000 ff4c 	bl	8002bf0 <res_reset>
	Delay(10000);
 8001d58:	f242 7010 	movw	r0, #10000	; 0x2710
 8001d5c:	f000 ff54 	bl	8002c08 <Delay>

	res_set();
 8001d60:	f000 ff3a 	bl	8002bd8 <res_set>
	Delay(10000);
 8001d64:	f242 7010 	movw	r0, #10000	; 0x2710
 8001d68:	f000 ff4e 	bl	8002c08 <Delay>
}
 8001d6c:	bf00      	nop
 8001d6e:	bd80      	pop	{r7, pc}

08001d70 <lcdWriteCommand>:

void lcdWriteCommand(uint8_t address)
{
 8001d70:	b580      	push	{r7, lr}
 8001d72:	b082      	sub	sp, #8
 8001d74:	af00      	add	r7, sp, #0
 8001d76:	4603      	mov	r3, r0
 8001d78:	71fb      	strb	r3, [r7, #7]
	cd_reset();
 8001d7a:	f000 ff03 	bl	8002b84 <cd_reset>

	readWriteSPI2(address);
 8001d7e:	79fb      	ldrb	r3, [r7, #7]
 8001d80:	4618      	mov	r0, r3
 8001d82:	f000 fe93 	bl	8002aac <readWriteSPI2>
}
 8001d86:	bf00      	nop
 8001d88:	3708      	adds	r7, #8
 8001d8a:	46bd      	mov	sp, r7
 8001d8c:	bd80      	pop	{r7, pc}
 8001d8e:	bf00      	nop

08001d90 <lcdWriteParameter>:

void lcdWriteParameter(uint8_t parameter)
{
 8001d90:	b580      	push	{r7, lr}
 8001d92:	b082      	sub	sp, #8
 8001d94:	af00      	add	r7, sp, #0
 8001d96:	4603      	mov	r3, r0
 8001d98:	71fb      	strb	r3, [r7, #7]
	cd_set();
 8001d9a:	f000 fee7 	bl	8002b6c <cd_set>

	readWriteSPI2(parameter);
 8001d9e:	79fb      	ldrb	r3, [r7, #7]
 8001da0:	4618      	mov	r0, r3
 8001da2:	f000 fe83 	bl	8002aac <readWriteSPI2>
}
 8001da6:	bf00      	nop
 8001da8:	3708      	adds	r7, #8
 8001daa:	46bd      	mov	sp, r7
 8001dac:	bd80      	pop	{r7, pc}
 8001dae:	bf00      	nop

08001db0 <lcdWriteData>:

void lcdWriteData(uint8_t dataByte1, uint8_t dataByte2)
{
 8001db0:	b580      	push	{r7, lr}
 8001db2:	b082      	sub	sp, #8
 8001db4:	af00      	add	r7, sp, #0
 8001db6:	4603      	mov	r3, r0
 8001db8:	460a      	mov	r2, r1
 8001dba:	71fb      	strb	r3, [r7, #7]
 8001dbc:	4613      	mov	r3, r2
 8001dbe:	71bb      	strb	r3, [r7, #6]
	cd_set();
 8001dc0:	f000 fed4 	bl	8002b6c <cd_set>

	readWriteSPI2(dataByte1);
 8001dc4:	79fb      	ldrb	r3, [r7, #7]
 8001dc6:	4618      	mov	r0, r3
 8001dc8:	f000 fe70 	bl	8002aac <readWriteSPI2>
	readWriteSPI2(dataByte2);
 8001dcc:	79bb      	ldrb	r3, [r7, #6]
 8001dce:	4618      	mov	r0, r3
 8001dd0:	f000 fe6c 	bl	8002aac <readWriteSPI2>
}
 8001dd4:	bf00      	nop
 8001dd6:	3708      	adds	r7, #8
 8001dd8:	46bd      	mov	sp, r7
 8001dda:	bd80      	pop	{r7, pc}

08001ddc <lcdInitialise>:

// Initialise the display with the require screen orientation
void lcdInitialise(uint8_t orientation)
{
 8001ddc:	b580      	push	{r7, lr}
 8001dde:	b082      	sub	sp, #8
 8001de0:	af00      	add	r7, sp, #0
 8001de2:	4603      	mov	r3, r0
 8001de4:	71fb      	strb	r3, [r7, #7]
	// Set up the IO ports for communication with the LCD


	// Hardware reset the LCD
	lcdReset();
 8001de6:	f7ff ffb3 	bl	8001d50 <lcdReset>

    lcdWriteCommand(EXIT_SLEEP_MODE);
 8001dea:	2011      	movs	r0, #17
 8001dec:	f7ff ffc0 	bl	8001d70 <lcdWriteCommand>
    Delay(10000); // Wait for the screen to wake up
 8001df0:	f242 7010 	movw	r0, #10000	; 0x2710
 8001df4:	f000 ff08 	bl	8002c08 <Delay>

    lcdWriteCommand(SET_PIXEL_FORMAT);
 8001df8:	203a      	movs	r0, #58	; 0x3a
 8001dfa:	f7ff ffb9 	bl	8001d70 <lcdWriteCommand>
    lcdWriteParameter(0x05); // 16 bits per pixel
 8001dfe:	2005      	movs	r0, #5
 8001e00:	f7ff ffc6 	bl	8001d90 <lcdWriteParameter>

    lcdWriteCommand(SET_GAMMA_CURVE);
 8001e04:	2026      	movs	r0, #38	; 0x26
 8001e06:	f7ff ffb3 	bl	8001d70 <lcdWriteCommand>
    lcdWriteParameter(0x04); // Select gamma curve 3
 8001e0a:	2004      	movs	r0, #4
 8001e0c:	f7ff ffc0 	bl	8001d90 <lcdWriteParameter>

    lcdWriteCommand(GAM_R_SEL);
 8001e10:	20f2      	movs	r0, #242	; 0xf2
 8001e12:	f7ff ffad 	bl	8001d70 <lcdWriteCommand>
    lcdWriteParameter(0x01); // Gamma adjustment enabled
 8001e16:	2001      	movs	r0, #1
 8001e18:	f7ff ffba 	bl	8001d90 <lcdWriteParameter>

    lcdWriteCommand(POSITIVE_GAMMA_CORRECT);
 8001e1c:	20e0      	movs	r0, #224	; 0xe0
 8001e1e:	f7ff ffa7 	bl	8001d70 <lcdWriteCommand>
    lcdWriteParameter(0x3f); // 1st Parameter
 8001e22:	203f      	movs	r0, #63	; 0x3f
 8001e24:	f7ff ffb4 	bl	8001d90 <lcdWriteParameter>
    lcdWriteParameter(0x25); // 2nd Parameter
 8001e28:	2025      	movs	r0, #37	; 0x25
 8001e2a:	f7ff ffb1 	bl	8001d90 <lcdWriteParameter>
    lcdWriteParameter(0x1c); // 3rd Parameter
 8001e2e:	201c      	movs	r0, #28
 8001e30:	f7ff ffae 	bl	8001d90 <lcdWriteParameter>
    lcdWriteParameter(0x1e); // 4th Parameter
 8001e34:	201e      	movs	r0, #30
 8001e36:	f7ff ffab 	bl	8001d90 <lcdWriteParameter>
    lcdWriteParameter(0x20); // 5th Parameter
 8001e3a:	2020      	movs	r0, #32
 8001e3c:	f7ff ffa8 	bl	8001d90 <lcdWriteParameter>
    lcdWriteParameter(0x12); // 6th Parameter
 8001e40:	2012      	movs	r0, #18
 8001e42:	f7ff ffa5 	bl	8001d90 <lcdWriteParameter>
    lcdWriteParameter(0x2a); // 7th Parameter
 8001e46:	202a      	movs	r0, #42	; 0x2a
 8001e48:	f7ff ffa2 	bl	8001d90 <lcdWriteParameter>
    lcdWriteParameter(0x90); // 8th Parameter
 8001e4c:	2090      	movs	r0, #144	; 0x90
 8001e4e:	f7ff ff9f 	bl	8001d90 <lcdWriteParameter>
    lcdWriteParameter(0x24); // 9th Parameter
 8001e52:	2024      	movs	r0, #36	; 0x24
 8001e54:	f7ff ff9c 	bl	8001d90 <lcdWriteParameter>
    lcdWriteParameter(0x11); // 10th Parameter
 8001e58:	2011      	movs	r0, #17
 8001e5a:	f7ff ff99 	bl	8001d90 <lcdWriteParameter>
    lcdWriteParameter(0x00); // 11th Parameter
 8001e5e:	2000      	movs	r0, #0
 8001e60:	f7ff ff96 	bl	8001d90 <lcdWriteParameter>
    lcdWriteParameter(0x00); // 12th Parameter
 8001e64:	2000      	movs	r0, #0
 8001e66:	f7ff ff93 	bl	8001d90 <lcdWriteParameter>
    lcdWriteParameter(0x00); // 13th Parameter
 8001e6a:	2000      	movs	r0, #0
 8001e6c:	f7ff ff90 	bl	8001d90 <lcdWriteParameter>
    lcdWriteParameter(0x00); // 14th Parameter
 8001e70:	2000      	movs	r0, #0
 8001e72:	f7ff ff8d 	bl	8001d90 <lcdWriteParameter>
    lcdWriteParameter(0x00); // 15th Parameter
 8001e76:	2000      	movs	r0, #0
 8001e78:	f7ff ff8a 	bl	8001d90 <lcdWriteParameter>

    lcdWriteCommand(NEGATIVE_GAMMA_CORRECT);
 8001e7c:	20e1      	movs	r0, #225	; 0xe1
 8001e7e:	f7ff ff77 	bl	8001d70 <lcdWriteCommand>
    lcdWriteParameter(0x20); // 1st Parameter
 8001e82:	2020      	movs	r0, #32
 8001e84:	f7ff ff84 	bl	8001d90 <lcdWriteParameter>
    lcdWriteParameter(0x20); // 2nd Parameter
 8001e88:	2020      	movs	r0, #32
 8001e8a:	f7ff ff81 	bl	8001d90 <lcdWriteParameter>
    lcdWriteParameter(0x20); // 3rd Parameter
 8001e8e:	2020      	movs	r0, #32
 8001e90:	f7ff ff7e 	bl	8001d90 <lcdWriteParameter>
    lcdWriteParameter(0x20); // 4th Parameter
 8001e94:	2020      	movs	r0, #32
 8001e96:	f7ff ff7b 	bl	8001d90 <lcdWriteParameter>
    lcdWriteParameter(0x05); // 5th Parameter
 8001e9a:	2005      	movs	r0, #5
 8001e9c:	f7ff ff78 	bl	8001d90 <lcdWriteParameter>
    lcdWriteParameter(0x00); // 6th Parameter
 8001ea0:	2000      	movs	r0, #0
 8001ea2:	f7ff ff75 	bl	8001d90 <lcdWriteParameter>
    lcdWriteParameter(0x15); // 7th Parameter
 8001ea6:	2015      	movs	r0, #21
 8001ea8:	f7ff ff72 	bl	8001d90 <lcdWriteParameter>
    lcdWriteParameter(0xa7); // 8th Parameter
 8001eac:	20a7      	movs	r0, #167	; 0xa7
 8001eae:	f7ff ff6f 	bl	8001d90 <lcdWriteParameter>
    lcdWriteParameter(0x3d); // 9th Parameter
 8001eb2:	203d      	movs	r0, #61	; 0x3d
 8001eb4:	f7ff ff6c 	bl	8001d90 <lcdWriteParameter>
    lcdWriteParameter(0x18); // 10th Parameter
 8001eb8:	2018      	movs	r0, #24
 8001eba:	f7ff ff69 	bl	8001d90 <lcdWriteParameter>
    lcdWriteParameter(0x25); // 11th Parameter
 8001ebe:	2025      	movs	r0, #37	; 0x25
 8001ec0:	f7ff ff66 	bl	8001d90 <lcdWriteParameter>
    lcdWriteParameter(0x2a); // 12th Parameter
 8001ec4:	202a      	movs	r0, #42	; 0x2a
 8001ec6:	f7ff ff63 	bl	8001d90 <lcdWriteParameter>
    lcdWriteParameter(0x2b); // 13th Parameter
 8001eca:	202b      	movs	r0, #43	; 0x2b
 8001ecc:	f7ff ff60 	bl	8001d90 <lcdWriteParameter>
    lcdWriteParameter(0x2b); // 14th Parameter
 8001ed0:	202b      	movs	r0, #43	; 0x2b
 8001ed2:	f7ff ff5d 	bl	8001d90 <lcdWriteParameter>
    lcdWriteParameter(0x3a); // 15th Parameter
 8001ed6:	203a      	movs	r0, #58	; 0x3a
 8001ed8:	f7ff ff5a 	bl	8001d90 <lcdWriteParameter>

    lcdWriteCommand(FRAME_RATE_CONTROL1);
 8001edc:	20b1      	movs	r0, #177	; 0xb1
 8001ede:	f7ff ff47 	bl	8001d70 <lcdWriteCommand>
    lcdWriteParameter(0x08); // DIVA = 8
 8001ee2:	2008      	movs	r0, #8
 8001ee4:	f7ff ff54 	bl	8001d90 <lcdWriteParameter>
    lcdWriteParameter(0x08); // VPA = 8
 8001ee8:	2008      	movs	r0, #8
 8001eea:	f7ff ff51 	bl	8001d90 <lcdWriteParameter>

    lcdWriteCommand(DISPLAY_INVERSION);
 8001eee:	20b4      	movs	r0, #180	; 0xb4
 8001ef0:	f7ff ff3e 	bl	8001d70 <lcdWriteCommand>
    lcdWriteParameter(0x07); // NLA = 1, NLB = 1, NLC = 1 (all on Frame Inversion)
 8001ef4:	2007      	movs	r0, #7
 8001ef6:	f7ff ff4b 	bl	8001d90 <lcdWriteParameter>

    lcdWriteCommand(POWER_CONTROL1);
 8001efa:	20c0      	movs	r0, #192	; 0xc0
 8001efc:	f7ff ff38 	bl	8001d70 <lcdWriteCommand>
    lcdWriteParameter(0x0a); // VRH = 10:  GVDD = 4.30
 8001f00:	200a      	movs	r0, #10
 8001f02:	f7ff ff45 	bl	8001d90 <lcdWriteParameter>
    lcdWriteParameter(0x02); // VC = 2: VCI1 = 2.65
 8001f06:	2002      	movs	r0, #2
 8001f08:	f7ff ff42 	bl	8001d90 <lcdWriteParameter>

    lcdWriteCommand(POWER_CONTROL2);
 8001f0c:	20c1      	movs	r0, #193	; 0xc1
 8001f0e:	f7ff ff2f 	bl	8001d70 <lcdWriteCommand>
    lcdWriteParameter(0x02); // BT = 2: AVDD = 2xVCI1, VCL = -1xVCI1, VGH = 5xVCI1, VGL = -2xVCI1
 8001f12:	2002      	movs	r0, #2
 8001f14:	f7ff ff3c 	bl	8001d90 <lcdWriteParameter>

    lcdWriteCommand(VCOM_CONTROL1);
 8001f18:	20c5      	movs	r0, #197	; 0xc5
 8001f1a:	f7ff ff29 	bl	8001d70 <lcdWriteCommand>
    lcdWriteParameter(0x50); // VMH = 80: VCOMH voltage = 4.5
 8001f1e:	2050      	movs	r0, #80	; 0x50
 8001f20:	f7ff ff36 	bl	8001d90 <lcdWriteParameter>
    lcdWriteParameter(0x5b); // VML = 91: VCOML voltage = -0.225
 8001f24:	205b      	movs	r0, #91	; 0x5b
 8001f26:	f7ff ff33 	bl	8001d90 <lcdWriteParameter>

    lcdWriteCommand(VCOM_OFFSET_CONTROL);
 8001f2a:	20c7      	movs	r0, #199	; 0xc7
 8001f2c:	f7ff ff20 	bl	8001d70 <lcdWriteCommand>
    lcdWriteParameter(0x40); // nVM = 0, VMF = 64: VCOMH output = VMH, VCOML output = VML
 8001f30:	2040      	movs	r0, #64	; 0x40
 8001f32:	f7ff ff2d 	bl	8001d90 <lcdWriteParameter>

    lcdWriteCommand(SET_COLUMN_ADDRESS);
 8001f36:	202a      	movs	r0, #42	; 0x2a
 8001f38:	f7ff ff1a 	bl	8001d70 <lcdWriteCommand>
    lcdWriteParameter(0x00); // XSH
 8001f3c:	2000      	movs	r0, #0
 8001f3e:	f7ff ff27 	bl	8001d90 <lcdWriteParameter>
    lcdWriteParameter(0x00); // XSL
 8001f42:	2000      	movs	r0, #0
 8001f44:	f7ff ff24 	bl	8001d90 <lcdWriteParameter>
    lcdWriteParameter(0x00); // XEH
 8001f48:	2000      	movs	r0, #0
 8001f4a:	f7ff ff21 	bl	8001d90 <lcdWriteParameter>
    lcdWriteParameter(0x7f); // XEL (128 pixels x)
 8001f4e:	207f      	movs	r0, #127	; 0x7f
 8001f50:	f7ff ff1e 	bl	8001d90 <lcdWriteParameter>

    lcdWriteCommand(SET_PAGE_ADDRESS);
 8001f54:	202b      	movs	r0, #43	; 0x2b
 8001f56:	f7ff ff0b 	bl	8001d70 <lcdWriteCommand>
    lcdWriteParameter(0x00);
 8001f5a:	2000      	movs	r0, #0
 8001f5c:	f7ff ff18 	bl	8001d90 <lcdWriteParameter>
    lcdWriteParameter(0x00);
 8001f60:	2000      	movs	r0, #0
 8001f62:	f7ff ff15 	bl	8001d90 <lcdWriteParameter>
    lcdWriteParameter(0x00);
 8001f66:	2000      	movs	r0, #0
 8001f68:	f7ff ff12 	bl	8001d90 <lcdWriteParameter>
    lcdWriteParameter(0x7f); // 128 pixels y
 8001f6c:	207f      	movs	r0, #127	; 0x7f
 8001f6e:	f7ff ff0f 	bl	8001d90 <lcdWriteParameter>

	// Select display orientation
    lcdWriteCommand(SET_ADDRESS_MODE);
 8001f72:	2036      	movs	r0, #54	; 0x36
 8001f74:	f7ff fefc 	bl	8001d70 <lcdWriteCommand>
	lcdWriteParameter(orientation);
 8001f78:	79fb      	ldrb	r3, [r7, #7]
 8001f7a:	4618      	mov	r0, r3
 8001f7c:	f7ff ff08 	bl	8001d90 <lcdWriteParameter>

	// Set the display to on
    lcdWriteCommand(SET_DISPLAY_ON);
 8001f80:	2029      	movs	r0, #41	; 0x29
 8001f82:	f7ff fef5 	bl	8001d70 <lcdWriteCommand>
    lcdWriteCommand(WRITE_MEMORY_START);
 8001f86:	202c      	movs	r0, #44	; 0x2c
 8001f88:	f7ff fef2 	bl	8001d70 <lcdWriteCommand>
}
 8001f8c:	bf00      	nop
 8001f8e:	3708      	adds	r7, #8
 8001f90:	46bd      	mov	sp, r7
 8001f92:	bd80      	pop	{r7, pc}

08001f94 <lcdPlot>:
	lcdWriteCommand(WRITE_MEMORY_START);
	for(pixel = 0; pixel < 16385; pixel++) lcdWriteData(colour >> 8, colour);
}

void lcdPlot(uint8_t x, uint8_t y, uint16_t colour)
{
 8001f94:	b580      	push	{r7, lr}
 8001f96:	b082      	sub	sp, #8
 8001f98:	af00      	add	r7, sp, #0
 8001f9a:	4603      	mov	r3, r0
 8001f9c:	71fb      	strb	r3, [r7, #7]
 8001f9e:	460b      	mov	r3, r1
 8001fa0:	71bb      	strb	r3, [r7, #6]
 8001fa2:	4613      	mov	r3, r2
 8001fa4:	80bb      	strh	r3, [r7, #4]
	// Horizontal Address Start Position
	lcdWriteCommand(SET_COLUMN_ADDRESS);
 8001fa6:	202a      	movs	r0, #42	; 0x2a
 8001fa8:	f7ff fee2 	bl	8001d70 <lcdWriteCommand>
	lcdWriteParameter(0x00);
 8001fac:	2000      	movs	r0, #0
 8001fae:	f7ff feef 	bl	8001d90 <lcdWriteParameter>
	lcdWriteParameter(x);
 8001fb2:	79fb      	ldrb	r3, [r7, #7]
 8001fb4:	4618      	mov	r0, r3
 8001fb6:	f7ff feeb 	bl	8001d90 <lcdWriteParameter>
	lcdWriteParameter(0x00);
 8001fba:	2000      	movs	r0, #0
 8001fbc:	f7ff fee8 	bl	8001d90 <lcdWriteParameter>
	lcdWriteParameter(0x7f);
 8001fc0:	207f      	movs	r0, #127	; 0x7f
 8001fc2:	f7ff fee5 	bl	8001d90 <lcdWriteParameter>

	// Vertical Address end Position
	lcdWriteCommand(SET_PAGE_ADDRESS);
 8001fc6:	202b      	movs	r0, #43	; 0x2b
 8001fc8:	f7ff fed2 	bl	8001d70 <lcdWriteCommand>
	lcdWriteParameter(0x00);
 8001fcc:	2000      	movs	r0, #0
 8001fce:	f7ff fedf 	bl	8001d90 <lcdWriteParameter>
	lcdWriteParameter(y);
 8001fd2:	79bb      	ldrb	r3, [r7, #6]
 8001fd4:	4618      	mov	r0, r3
 8001fd6:	f7ff fedb 	bl	8001d90 <lcdWriteParameter>
	lcdWriteParameter(0x00);
 8001fda:	2000      	movs	r0, #0
 8001fdc:	f7ff fed8 	bl	8001d90 <lcdWriteParameter>
	lcdWriteParameter(0x7f);//7f
 8001fe0:	207f      	movs	r0, #127	; 0x7f
 8001fe2:	f7ff fed5 	bl	8001d90 <lcdWriteParameter>

	// Plot the point
	lcdWriteCommand(WRITE_MEMORY_START);
 8001fe6:	202c      	movs	r0, #44	; 0x2c
 8001fe8:	f7ff fec2 	bl	8001d70 <lcdWriteCommand>
	lcdWriteData(colour >> 8, colour);
 8001fec:	88bb      	ldrh	r3, [r7, #4]
 8001fee:	0a1b      	lsrs	r3, r3, #8
 8001ff0:	b29b      	uxth	r3, r3
 8001ff2:	b2db      	uxtb	r3, r3
 8001ff4:	88ba      	ldrh	r2, [r7, #4]
 8001ff6:	b2d2      	uxtb	r2, r2
 8001ff8:	4611      	mov	r1, r2
 8001ffa:	4618      	mov	r0, r3
 8001ffc:	f7ff fed8 	bl	8001db0 <lcdWriteData>
}
 8002000:	bf00      	nop
 8002002:	3708      	adds	r7, #8
 8002004:	46bd      	mov	sp, r7
 8002006:	bd80      	pop	{r7, pc}

08002008 <lcdLine>:

// Draw a line from x0, y0 to x1, y1
// Note:	This is a version of Bresenham's line drawing algorithm
//			It only draws lines from left to right!
void lcdLine(int16_t x0, int16_t y0, int16_t x1, int16_t y1, uint16_t colour)
{
 8002008:	b590      	push	{r4, r7, lr}
 800200a:	b087      	sub	sp, #28
 800200c:	af00      	add	r7, sp, #0
 800200e:	4604      	mov	r4, r0
 8002010:	4608      	mov	r0, r1
 8002012:	4611      	mov	r1, r2
 8002014:	461a      	mov	r2, r3
 8002016:	4623      	mov	r3, r4
 8002018:	80fb      	strh	r3, [r7, #6]
 800201a:	4603      	mov	r3, r0
 800201c:	80bb      	strh	r3, [r7, #4]
 800201e:	460b      	mov	r3, r1
 8002020:	807b      	strh	r3, [r7, #2]
 8002022:	4613      	mov	r3, r2
 8002024:	803b      	strh	r3, [r7, #0]
	int16_t dy = y1 - y0;
 8002026:	883a      	ldrh	r2, [r7, #0]
 8002028:	88bb      	ldrh	r3, [r7, #4]
 800202a:	1ad3      	subs	r3, r2, r3
 800202c:	b29b      	uxth	r3, r3
 800202e:	82fb      	strh	r3, [r7, #22]
	int16_t dx = x1 - x0;
 8002030:	887a      	ldrh	r2, [r7, #2]
 8002032:	88fb      	ldrh	r3, [r7, #6]
 8002034:	1ad3      	subs	r3, r2, r3
 8002036:	b29b      	uxth	r3, r3
 8002038:	82bb      	strh	r3, [r7, #20]
	int16_t stepx, stepy;

	if (dy < 0)
 800203a:	f9b7 3016 	ldrsh.w	r3, [r7, #22]
 800203e:	2b00      	cmp	r3, #0
 8002040:	da07      	bge.n	8002052 <lcdLine+0x4a>
	{
		dy = -dy; stepy = -1;
 8002042:	8afb      	ldrh	r3, [r7, #22]
 8002044:	425b      	negs	r3, r3
 8002046:	b29b      	uxth	r3, r3
 8002048:	82fb      	strh	r3, [r7, #22]
 800204a:	f64f 73ff 	movw	r3, #65535	; 0xffff
 800204e:	823b      	strh	r3, [r7, #16]
 8002050:	e001      	b.n	8002056 <lcdLine+0x4e>
	}
	else stepy = 1;
 8002052:	2301      	movs	r3, #1
 8002054:	823b      	strh	r3, [r7, #16]

 	if (dx < 0)
 8002056:	f9b7 3014 	ldrsh.w	r3, [r7, #20]
 800205a:	2b00      	cmp	r3, #0
 800205c:	da07      	bge.n	800206e <lcdLine+0x66>
	{
		dx = -dx; stepx = -1;
 800205e:	8abb      	ldrh	r3, [r7, #20]
 8002060:	425b      	negs	r3, r3
 8002062:	b29b      	uxth	r3, r3
 8002064:	82bb      	strh	r3, [r7, #20]
 8002066:	f64f 73ff 	movw	r3, #65535	; 0xffff
 800206a:	827b      	strh	r3, [r7, #18]
 800206c:	e001      	b.n	8002072 <lcdLine+0x6a>
	}
	else stepx = 1;
 800206e:	2301      	movs	r3, #1
 8002070:	827b      	strh	r3, [r7, #18]

	dy <<= 1; 							// dy is now 2*dy
 8002072:	f9b7 3016 	ldrsh.w	r3, [r7, #22]
 8002076:	005b      	lsls	r3, r3, #1
 8002078:	82fb      	strh	r3, [r7, #22]
	dx <<= 1; 							// dx is now 2*dx
 800207a:	f9b7 3014 	ldrsh.w	r3, [r7, #20]
 800207e:	005b      	lsls	r3, r3, #1
 8002080:	82bb      	strh	r3, [r7, #20]

	lcdPlot(x0, y0, colour);
 8002082:	88fb      	ldrh	r3, [r7, #6]
 8002084:	b2db      	uxtb	r3, r3
 8002086:	88ba      	ldrh	r2, [r7, #4]
 8002088:	b2d1      	uxtb	r1, r2
 800208a:	8d3a      	ldrh	r2, [r7, #40]	; 0x28
 800208c:	4618      	mov	r0, r3
 800208e:	f7ff ff81 	bl	8001f94 <lcdPlot>

	if (dx > dy) {
 8002092:	f9b7 2014 	ldrsh.w	r2, [r7, #20]
 8002096:	f9b7 3016 	ldrsh.w	r3, [r7, #22]
 800209a:	429a      	cmp	r2, r3
 800209c:	dd2e      	ble.n	80020fc <lcdLine+0xf4>
		int fraction = dy - (dx >> 1);	// same as 2*dy - dx
 800209e:	f9b7 3016 	ldrsh.w	r3, [r7, #22]
 80020a2:	f9b7 2014 	ldrsh.w	r2, [r7, #20]
 80020a6:	1052      	asrs	r2, r2, #1
 80020a8:	b212      	sxth	r2, r2
 80020aa:	1a9b      	subs	r3, r3, r2
 80020ac:	60fb      	str	r3, [r7, #12]
		while (x0 != x1)
 80020ae:	e01e      	b.n	80020ee <lcdLine+0xe6>
		{
			if (fraction >= 0)
 80020b0:	68fb      	ldr	r3, [r7, #12]
 80020b2:	2b00      	cmp	r3, #0
 80020b4:	db09      	blt.n	80020ca <lcdLine+0xc2>
			{
				y0 += stepy;
 80020b6:	88ba      	ldrh	r2, [r7, #4]
 80020b8:	8a3b      	ldrh	r3, [r7, #16]
 80020ba:	4413      	add	r3, r2
 80020bc:	b29b      	uxth	r3, r3
 80020be:	80bb      	strh	r3, [r7, #4]
				fraction -= dx; 		// same as fraction -= 2*dx
 80020c0:	f9b7 3014 	ldrsh.w	r3, [r7, #20]
 80020c4:	68fa      	ldr	r2, [r7, #12]
 80020c6:	1ad3      	subs	r3, r2, r3
 80020c8:	60fb      	str	r3, [r7, #12]
			}

   			x0 += stepx;
 80020ca:	88fa      	ldrh	r2, [r7, #6]
 80020cc:	8a7b      	ldrh	r3, [r7, #18]
 80020ce:	4413      	add	r3, r2
 80020d0:	b29b      	uxth	r3, r3
 80020d2:	80fb      	strh	r3, [r7, #6]
   			fraction += dy; 				// same as fraction -= 2*dy
 80020d4:	f9b7 3016 	ldrsh.w	r3, [r7, #22]
 80020d8:	68fa      	ldr	r2, [r7, #12]
 80020da:	4413      	add	r3, r2
 80020dc:	60fb      	str	r3, [r7, #12]
   			lcdPlot(x0, y0, colour);
 80020de:	88fb      	ldrh	r3, [r7, #6]
 80020e0:	b2db      	uxtb	r3, r3
 80020e2:	88ba      	ldrh	r2, [r7, #4]
 80020e4:	b2d1      	uxtb	r1, r2
 80020e6:	8d3a      	ldrh	r2, [r7, #40]	; 0x28
 80020e8:	4618      	mov	r0, r3
 80020ea:	f7ff ff53 	bl	8001f94 <lcdPlot>

	lcdPlot(x0, y0, colour);

	if (dx > dy) {
		int fraction = dy - (dx >> 1);	// same as 2*dy - dx
		while (x0 != x1)
 80020ee:	f9b7 2006 	ldrsh.w	r2, [r7, #6]
 80020f2:	f9b7 3002 	ldrsh.w	r3, [r7, #2]
 80020f6:	429a      	cmp	r2, r3
 80020f8:	d1da      	bne.n	80020b0 <lcdLine+0xa8>
			y0 += stepy;
			fraction += dx;
			lcdPlot(x0, y0, colour);
		}
	}
}
 80020fa:	e02d      	b.n	8002158 <lcdLine+0x150>
   			lcdPlot(x0, y0, colour);
		}
	}
	else
	{
		int fraction = dx - (dy >> 1);
 80020fc:	f9b7 3014 	ldrsh.w	r3, [r7, #20]
 8002100:	f9b7 2016 	ldrsh.w	r2, [r7, #22]
 8002104:	1052      	asrs	r2, r2, #1
 8002106:	b212      	sxth	r2, r2
 8002108:	1a9b      	subs	r3, r3, r2
 800210a:	60bb      	str	r3, [r7, #8]
		while (y0 != y1)
 800210c:	e01e      	b.n	800214c <lcdLine+0x144>
		{
			if (fraction >= 0)
 800210e:	68bb      	ldr	r3, [r7, #8]
 8002110:	2b00      	cmp	r3, #0
 8002112:	db09      	blt.n	8002128 <lcdLine+0x120>
			{
				x0 += stepx;
 8002114:	88fa      	ldrh	r2, [r7, #6]
 8002116:	8a7b      	ldrh	r3, [r7, #18]
 8002118:	4413      	add	r3, r2
 800211a:	b29b      	uxth	r3, r3
 800211c:	80fb      	strh	r3, [r7, #6]
				fraction -= dy;
 800211e:	f9b7 3016 	ldrsh.w	r3, [r7, #22]
 8002122:	68ba      	ldr	r2, [r7, #8]
 8002124:	1ad3      	subs	r3, r2, r3
 8002126:	60bb      	str	r3, [r7, #8]
			}

			y0 += stepy;
 8002128:	88ba      	ldrh	r2, [r7, #4]
 800212a:	8a3b      	ldrh	r3, [r7, #16]
 800212c:	4413      	add	r3, r2
 800212e:	b29b      	uxth	r3, r3
 8002130:	80bb      	strh	r3, [r7, #4]
			fraction += dx;
 8002132:	f9b7 3014 	ldrsh.w	r3, [r7, #20]
 8002136:	68ba      	ldr	r2, [r7, #8]
 8002138:	4413      	add	r3, r2
 800213a:	60bb      	str	r3, [r7, #8]
			lcdPlot(x0, y0, colour);
 800213c:	88fb      	ldrh	r3, [r7, #6]
 800213e:	b2db      	uxtb	r3, r3
 8002140:	88ba      	ldrh	r2, [r7, #4]
 8002142:	b2d1      	uxtb	r1, r2
 8002144:	8d3a      	ldrh	r2, [r7, #40]	; 0x28
 8002146:	4618      	mov	r0, r3
 8002148:	f7ff ff24 	bl	8001f94 <lcdPlot>
		}
	}
	else
	{
		int fraction = dx - (dy >> 1);
		while (y0 != y1)
 800214c:	f9b7 2004 	ldrsh.w	r2, [r7, #4]
 8002150:	f9b7 3000 	ldrsh.w	r3, [r7]
 8002154:	429a      	cmp	r2, r3
 8002156:	d1da      	bne.n	800210e <lcdLine+0x106>
			y0 += stepy;
			fraction += dx;
			lcdPlot(x0, y0, colour);
		}
	}
}
 8002158:	bf00      	nop
 800215a:	371c      	adds	r7, #28
 800215c:	46bd      	mov	sp, r7
 800215e:	bd90      	pop	{r4, r7, pc}

08002160 <lcdRectangle>:

// Draw a rectangle between x0, y0 and x1, y1
void lcdRectangle(int16_t x0, int16_t y0, int16_t x1, int16_t y1, uint16_t colour)
{
 8002160:	b590      	push	{r4, r7, lr}
 8002162:	b085      	sub	sp, #20
 8002164:	af02      	add	r7, sp, #8
 8002166:	4604      	mov	r4, r0
 8002168:	4608      	mov	r0, r1
 800216a:	4611      	mov	r1, r2
 800216c:	461a      	mov	r2, r3
 800216e:	4623      	mov	r3, r4
 8002170:	80fb      	strh	r3, [r7, #6]
 8002172:	4603      	mov	r3, r0
 8002174:	80bb      	strh	r3, [r7, #4]
 8002176:	460b      	mov	r3, r1
 8002178:	807b      	strh	r3, [r7, #2]
 800217a:	4613      	mov	r3, r2
 800217c:	803b      	strh	r3, [r7, #0]
	lcdLine(x0, y0, x0, y1, colour);
 800217e:	f9b7 4000 	ldrsh.w	r4, [r7]
 8002182:	f9b7 2006 	ldrsh.w	r2, [r7, #6]
 8002186:	f9b7 1004 	ldrsh.w	r1, [r7, #4]
 800218a:	f9b7 0006 	ldrsh.w	r0, [r7, #6]
 800218e:	8b3b      	ldrh	r3, [r7, #24]
 8002190:	9300      	str	r3, [sp, #0]
 8002192:	4623      	mov	r3, r4
 8002194:	f7ff ff38 	bl	8002008 <lcdLine>
	lcdLine(x0, y1, x1, y1, colour);
 8002198:	f9b7 4000 	ldrsh.w	r4, [r7]
 800219c:	f9b7 2002 	ldrsh.w	r2, [r7, #2]
 80021a0:	f9b7 1000 	ldrsh.w	r1, [r7]
 80021a4:	f9b7 0006 	ldrsh.w	r0, [r7, #6]
 80021a8:	8b3b      	ldrh	r3, [r7, #24]
 80021aa:	9300      	str	r3, [sp, #0]
 80021ac:	4623      	mov	r3, r4
 80021ae:	f7ff ff2b 	bl	8002008 <lcdLine>
	lcdLine(x1, y0, x1, y1, colour);
 80021b2:	f9b7 4000 	ldrsh.w	r4, [r7]
 80021b6:	f9b7 2002 	ldrsh.w	r2, [r7, #2]
 80021ba:	f9b7 1004 	ldrsh.w	r1, [r7, #4]
 80021be:	f9b7 0002 	ldrsh.w	r0, [r7, #2]
 80021c2:	8b3b      	ldrh	r3, [r7, #24]
 80021c4:	9300      	str	r3, [sp, #0]
 80021c6:	4623      	mov	r3, r4
 80021c8:	f7ff ff1e 	bl	8002008 <lcdLine>
	lcdLine(x0, y0, x1, y0, colour);
 80021cc:	f9b7 4004 	ldrsh.w	r4, [r7, #4]
 80021d0:	f9b7 2002 	ldrsh.w	r2, [r7, #2]
 80021d4:	f9b7 1004 	ldrsh.w	r1, [r7, #4]
 80021d8:	f9b7 0006 	ldrsh.w	r0, [r7, #6]
 80021dc:	8b3b      	ldrh	r3, [r7, #24]
 80021de:	9300      	str	r3, [sp, #0]
 80021e0:	4623      	mov	r3, r4
 80021e2:	f7ff ff11 	bl	8002008 <lcdLine>
}
 80021e6:	bf00      	nop
 80021e8:	370c      	adds	r7, #12
 80021ea:	46bd      	mov	sp, r7
 80021ec:	bd90      	pop	{r4, r7, pc}
 80021ee:	bf00      	nop

080021f0 <lcdFilledRectangle>:

// Draw a filled rectangle
// Note:	y1 must be greater than y0  and x1 must be greater than x0
//			for this to work
void lcdFilledRectangle(int16_t x0, int16_t y0, int16_t x1, int16_t y1, uint16_t colour)
{
 80021f0:	b590      	push	{r4, r7, lr}
 80021f2:	b085      	sub	sp, #20
 80021f4:	af00      	add	r7, sp, #0
 80021f6:	4604      	mov	r4, r0
 80021f8:	4608      	mov	r0, r1
 80021fa:	4611      	mov	r1, r2
 80021fc:	461a      	mov	r2, r3
 80021fe:	4623      	mov	r3, r4
 8002200:	80fb      	strh	r3, [r7, #6]
 8002202:	4603      	mov	r3, r0
 8002204:	80bb      	strh	r3, [r7, #4]
 8002206:	460b      	mov	r3, r1
 8002208:	807b      	strh	r3, [r7, #2]
 800220a:	4613      	mov	r3, r2
 800220c:	803b      	strh	r3, [r7, #0]

	// To speed up plotting we define a x window with the width of the
	// rectangle and then just output the required number of bytes to
	// fill down to the end point

	lcdWriteCommand(SET_COLUMN_ADDRESS); // Horizontal Address Start Position
 800220e:	202a      	movs	r0, #42	; 0x2a
 8002210:	f7ff fdae 	bl	8001d70 <lcdWriteCommand>
	lcdWriteParameter(0x00);
 8002214:	2000      	movs	r0, #0
 8002216:	f7ff fdbb 	bl	8001d90 <lcdWriteParameter>
	lcdWriteParameter(x0);
 800221a:	88fb      	ldrh	r3, [r7, #6]
 800221c:	b2db      	uxtb	r3, r3
 800221e:	4618      	mov	r0, r3
 8002220:	f7ff fdb6 	bl	8001d90 <lcdWriteParameter>
	lcdWriteParameter(0x00);
 8002224:	2000      	movs	r0, #0
 8002226:	f7ff fdb3 	bl	8001d90 <lcdWriteParameter>
	lcdWriteParameter(x1);
 800222a:	887b      	ldrh	r3, [r7, #2]
 800222c:	b2db      	uxtb	r3, r3
 800222e:	4618      	mov	r0, r3
 8002230:	f7ff fdae 	bl	8001d90 <lcdWriteParameter>

	lcdWriteCommand(SET_PAGE_ADDRESS); // Vertical Address end Position
 8002234:	202b      	movs	r0, #43	; 0x2b
 8002236:	f7ff fd9b 	bl	8001d70 <lcdWriteCommand>
	lcdWriteParameter(0x00);
 800223a:	2000      	movs	r0, #0
 800223c:	f7ff fda8 	bl	8001d90 <lcdWriteParameter>
	lcdWriteParameter(y0);
 8002240:	88bb      	ldrh	r3, [r7, #4]
 8002242:	b2db      	uxtb	r3, r3
 8002244:	4618      	mov	r0, r3
 8002246:	f7ff fda3 	bl	8001d90 <lcdWriteParameter>
	lcdWriteParameter(0x00);
 800224a:	2000      	movs	r0, #0
 800224c:	f7ff fda0 	bl	8001d90 <lcdWriteParameter>
	lcdWriteParameter(y1);
 8002250:	883b      	ldrh	r3, [r7, #0]
 8002252:	b2db      	uxtb	r3, r3
 8002254:	4618      	mov	r0, r3
 8002256:	f7ff fd9b 	bl	8001d90 <lcdWriteParameter>

	lcdWriteCommand(WRITE_MEMORY_START);
 800225a:	202c      	movs	r0, #44	; 0x2c
 800225c:	f7ff fd88 	bl	8001d70 <lcdWriteCommand>

	for (pixels = 0; pixels < ((x1 - x0) * (y1 - y0)); pixels++)
 8002260:	2300      	movs	r3, #0
 8002262:	81fb      	strh	r3, [r7, #14]
 8002264:	e00c      	b.n	8002280 <lcdFilledRectangle+0x90>
		lcdWriteData(colour >> 8, colour);;
 8002266:	8c3b      	ldrh	r3, [r7, #32]
 8002268:	0a1b      	lsrs	r3, r3, #8
 800226a:	b29b      	uxth	r3, r3
 800226c:	b2db      	uxtb	r3, r3
 800226e:	8c3a      	ldrh	r2, [r7, #32]
 8002270:	b2d2      	uxtb	r2, r2
 8002272:	4611      	mov	r1, r2
 8002274:	4618      	mov	r0, r3
 8002276:	f7ff fd9b 	bl	8001db0 <lcdWriteData>
	lcdWriteParameter(0x00);
	lcdWriteParameter(y1);

	lcdWriteCommand(WRITE_MEMORY_START);

	for (pixels = 0; pixels < ((x1 - x0) * (y1 - y0)); pixels++)
 800227a:	89fb      	ldrh	r3, [r7, #14]
 800227c:	3301      	adds	r3, #1
 800227e:	81fb      	strh	r3, [r7, #14]
 8002280:	89fa      	ldrh	r2, [r7, #14]
 8002282:	f9b7 1002 	ldrsh.w	r1, [r7, #2]
 8002286:	f9b7 3006 	ldrsh.w	r3, [r7, #6]
 800228a:	1acb      	subs	r3, r1, r3
 800228c:	f9b7 0000 	ldrsh.w	r0, [r7]
 8002290:	f9b7 1004 	ldrsh.w	r1, [r7, #4]
 8002294:	1a41      	subs	r1, r0, r1
 8002296:	fb01 f303 	mul.w	r3, r1, r3
 800229a:	429a      	cmp	r2, r3
 800229c:	dbe3      	blt.n	8002266 <lcdFilledRectangle+0x76>
		lcdWriteData(colour >> 8, colour);;
}
 800229e:	bf00      	nop
 80022a0:	3714      	adds	r7, #20
 80022a2:	46bd      	mov	sp, r7
 80022a4:	bd90      	pop	{r4, r7, pc}
 80022a6:	bf00      	nop

080022a8 <lcdPutCh>:

// LCD text manipulation functions --------------------------------------------------------------------------
#define pgm_read_byte_near(address_short) (uint16_t)(address_short)
// Plot a character at the specified x, y co-ordinates (top left hand corner of character)
void lcdPutCh(unsigned char character, uint8_t x, uint8_t y, uint16_t fgColour, uint16_t bgColour)
{
 80022a8:	b590      	push	{r4, r7, lr}
 80022aa:	b085      	sub	sp, #20
 80022ac:	af00      	add	r7, sp, #0
 80022ae:	4604      	mov	r4, r0
 80022b0:	4608      	mov	r0, r1
 80022b2:	4611      	mov	r1, r2
 80022b4:	461a      	mov	r2, r3
 80022b6:	4623      	mov	r3, r4
 80022b8:	71fb      	strb	r3, [r7, #7]
 80022ba:	4603      	mov	r3, r0
 80022bc:	71bb      	strb	r3, [r7, #6]
 80022be:	460b      	mov	r3, r1
 80022c0:	717b      	strb	r3, [r7, #5]
 80022c2:	4613      	mov	r3, r2
 80022c4:	807b      	strh	r3, [r7, #2]

	// To speed up plotting we define a x window of 6 pixels and then
	// write out one row at a time.  This means the LCD will correctly
	// update the memory pointer saving us a good few bytes

	lcdWriteCommand(SET_COLUMN_ADDRESS); // Horizontal Address Start Position
 80022c6:	202a      	movs	r0, #42	; 0x2a
 80022c8:	f7ff fd52 	bl	8001d70 <lcdWriteCommand>
	lcdWriteParameter(0x00);
 80022cc:	2000      	movs	r0, #0
 80022ce:	f7ff fd5f 	bl	8001d90 <lcdWriteParameter>
	lcdWriteParameter(x);
 80022d2:	79bb      	ldrb	r3, [r7, #6]
 80022d4:	4618      	mov	r0, r3
 80022d6:	f7ff fd5b 	bl	8001d90 <lcdWriteParameter>
	lcdWriteParameter(0x00);
 80022da:	2000      	movs	r0, #0
 80022dc:	f7ff fd58 	bl	8001d90 <lcdWriteParameter>
	lcdWriteParameter(x+5);
 80022e0:	79bb      	ldrb	r3, [r7, #6]
 80022e2:	3305      	adds	r3, #5
 80022e4:	b2db      	uxtb	r3, r3
 80022e6:	4618      	mov	r0, r3
 80022e8:	f7ff fd52 	bl	8001d90 <lcdWriteParameter>

	lcdWriteCommand(SET_PAGE_ADDRESS); // Vertical Address end Position
 80022ec:	202b      	movs	r0, #43	; 0x2b
 80022ee:	f7ff fd3f 	bl	8001d70 <lcdWriteCommand>
	lcdWriteParameter(0x00);
 80022f2:	2000      	movs	r0, #0
 80022f4:	f7ff fd4c 	bl	8001d90 <lcdWriteParameter>
	lcdWriteParameter(y);
 80022f8:	797b      	ldrb	r3, [r7, #5]
 80022fa:	4618      	mov	r0, r3
 80022fc:	f7ff fd48 	bl	8001d90 <lcdWriteParameter>
	lcdWriteParameter(0x00);
 8002300:	2000      	movs	r0, #0
 8002302:	f7ff fd45 	bl	8001d90 <lcdWriteParameter>
	lcdWriteParameter(0x7f);
 8002306:	207f      	movs	r0, #127	; 0x7f
 8002308:	f7ff fd42 	bl	8001d90 <lcdWriteParameter>

	lcdWriteCommand(WRITE_MEMORY_START);
 800230c:	202c      	movs	r0, #44	; 0x2c
 800230e:	f7ff fd2f 	bl	8001d70 <lcdWriteCommand>

	// Plot the font data
	for (row = 0; row < 8; row++)
 8002312:	2300      	movs	r3, #0
 8002314:	73fb      	strb	r3, [r7, #15]
 8002316:	e032      	b.n	800237e <lcdPutCh+0xd6>
	{
		for (column = 0; column < 6; column++)
 8002318:	2300      	movs	r3, #0
 800231a:	73bb      	strb	r3, [r7, #14]
 800231c:	e029      	b.n	8002372 <lcdPutCh+0xca>
		{
			if ((font5x8[character][column]) & (1 << row))
 800231e:	79fa      	ldrb	r2, [r7, #7]
 8002320:	7bb9      	ldrb	r1, [r7, #14]
 8002322:	481a      	ldr	r0, [pc, #104]	; (800238c <lcdPutCh+0xe4>)
 8002324:	4613      	mov	r3, r2
 8002326:	005b      	lsls	r3, r3, #1
 8002328:	4413      	add	r3, r2
 800232a:	005b      	lsls	r3, r3, #1
 800232c:	4403      	add	r3, r0
 800232e:	440b      	add	r3, r1
 8002330:	781b      	ldrb	r3, [r3, #0]
 8002332:	461a      	mov	r2, r3
 8002334:	7bfb      	ldrb	r3, [r7, #15]
 8002336:	fa42 f303 	asr.w	r3, r2, r3
 800233a:	f003 0301 	and.w	r3, r3, #1
 800233e:	2b00      	cmp	r3, #0
 8002340:	d00a      	beq.n	8002358 <lcdPutCh+0xb0>
				lcdWriteData(fgColour>>8, fgColour);
 8002342:	887b      	ldrh	r3, [r7, #2]
 8002344:	0a1b      	lsrs	r3, r3, #8
 8002346:	b29b      	uxth	r3, r3
 8002348:	b2db      	uxtb	r3, r3
 800234a:	887a      	ldrh	r2, [r7, #2]
 800234c:	b2d2      	uxtb	r2, r2
 800234e:	4611      	mov	r1, r2
 8002350:	4618      	mov	r0, r3
 8002352:	f7ff fd2d 	bl	8001db0 <lcdWriteData>
 8002356:	e009      	b.n	800236c <lcdPutCh+0xc4>
			else lcdWriteData(bgColour >> 8, bgColour);
 8002358:	8c3b      	ldrh	r3, [r7, #32]
 800235a:	0a1b      	lsrs	r3, r3, #8
 800235c:	b29b      	uxth	r3, r3
 800235e:	b2db      	uxtb	r3, r3
 8002360:	8c3a      	ldrh	r2, [r7, #32]
 8002362:	b2d2      	uxtb	r2, r2
 8002364:	4611      	mov	r1, r2
 8002366:	4618      	mov	r0, r3
 8002368:	f7ff fd22 	bl	8001db0 <lcdWriteData>
	lcdWriteCommand(WRITE_MEMORY_START);

	// Plot the font data
	for (row = 0; row < 8; row++)
	{
		for (column = 0; column < 6; column++)
 800236c:	7bbb      	ldrb	r3, [r7, #14]
 800236e:	3301      	adds	r3, #1
 8002370:	73bb      	strb	r3, [r7, #14]
 8002372:	7bbb      	ldrb	r3, [r7, #14]
 8002374:	2b05      	cmp	r3, #5
 8002376:	d9d2      	bls.n	800231e <lcdPutCh+0x76>
	lcdWriteParameter(0x7f);

	lcdWriteCommand(WRITE_MEMORY_START);

	// Plot the font data
	for (row = 0; row < 8; row++)
 8002378:	7bfb      	ldrb	r3, [r7, #15]
 800237a:	3301      	adds	r3, #1
 800237c:	73fb      	strb	r3, [r7, #15]
 800237e:	7bfb      	ldrb	r3, [r7, #15]
 8002380:	2b07      	cmp	r3, #7
 8002382:	d9c9      	bls.n	8002318 <lcdPutCh+0x70>
			if ((font5x8[character][column]) & (1 << row))
				lcdWriteData(fgColour>>8, fgColour);
			else lcdWriteData(bgColour >> 8, bgColour);
		}
	}
}
 8002384:	bf00      	nop
 8002386:	3714      	adds	r7, #20
 8002388:	46bd      	mov	sp, r7
 800238a:	bd90      	pop	{r4, r7, pc}
 800238c:	0800313c 	.word	0x0800313c

08002390 <decodeRgbValue>:

// Translates a 3 byte RGB value into a 2 byte value for the LCD (values should be 0-31)
uint16_t decodeRgbValue(uint8_t r, uint8_t g, uint8_t b)
{
 8002390:	b480      	push	{r7}
 8002392:	b083      	sub	sp, #12
 8002394:	af00      	add	r7, sp, #0
 8002396:	4603      	mov	r3, r0
 8002398:	71fb      	strb	r3, [r7, #7]
 800239a:	460b      	mov	r3, r1
 800239c:	71bb      	strb	r3, [r7, #6]
 800239e:	4613      	mov	r3, r2
 80023a0:	717b      	strb	r3, [r7, #5]
	return (b << 11) | (g << 6) | (r);
 80023a2:	797b      	ldrb	r3, [r7, #5]
 80023a4:	02db      	lsls	r3, r3, #11
 80023a6:	b21a      	sxth	r2, r3
 80023a8:	79bb      	ldrb	r3, [r7, #6]
 80023aa:	019b      	lsls	r3, r3, #6
 80023ac:	b21b      	sxth	r3, r3
 80023ae:	4313      	orrs	r3, r2
 80023b0:	b21a      	sxth	r2, r3
 80023b2:	79fb      	ldrb	r3, [r7, #7]
 80023b4:	b21b      	sxth	r3, r3
 80023b6:	4313      	orrs	r3, r2
 80023b8:	b21b      	sxth	r3, r3
 80023ba:	b29b      	uxth	r3, r3
}
 80023bc:	4618      	mov	r0, r3
 80023be:	370c      	adds	r7, #12
 80023c0:	46bd      	mov	sp, r7
 80023c2:	bc80      	pop	{r7}
 80023c4:	4770      	bx	lr
 80023c6:	bf00      	nop

080023c8 <lcdTextX>:

// This routine takes a row number from 0 to 20 and
// returns the x coordinate on the screen (0-127) to make
// it easy to place text
uint8_t lcdTextX(uint8_t x) { return x*6; }
 80023c8:	b480      	push	{r7}
 80023ca:	b083      	sub	sp, #12
 80023cc:	af00      	add	r7, sp, #0
 80023ce:	4603      	mov	r3, r0
 80023d0:	71fb      	strb	r3, [r7, #7]
 80023d2:	79fb      	ldrb	r3, [r7, #7]
 80023d4:	461a      	mov	r2, r3
 80023d6:	0052      	lsls	r2, r2, #1
 80023d8:	4413      	add	r3, r2
 80023da:	005b      	lsls	r3, r3, #1
 80023dc:	b2db      	uxtb	r3, r3
 80023de:	4618      	mov	r0, r3
 80023e0:	370c      	adds	r7, #12
 80023e2:	46bd      	mov	sp, r7
 80023e4:	bc80      	pop	{r7}
 80023e6:	4770      	bx	lr

080023e8 <lcdTextY>:

// This routine takes a column number from 0 to 20 and
// returns the y coordinate on the screen (0-127) to make
// it easy to place text
uint8_t lcdTextY(uint8_t y) { return y*8; }
 80023e8:	b480      	push	{r7}
 80023ea:	b083      	sub	sp, #12
 80023ec:	af00      	add	r7, sp, #0
 80023ee:	4603      	mov	r3, r0
 80023f0:	71fb      	strb	r3, [r7, #7]
 80023f2:	79fb      	ldrb	r3, [r7, #7]
 80023f4:	00db      	lsls	r3, r3, #3
 80023f6:	b2db      	uxtb	r3, r3
 80023f8:	4618      	mov	r0, r3
 80023fa:	370c      	adds	r7, #12
 80023fc:	46bd      	mov	sp, r7
 80023fe:	bc80      	pop	{r7}
 8002400:	4770      	bx	lr
 8002402:	bf00      	nop

08002404 <lcdPutS>:

// Plot a string of characters to the LCD
void lcdPutS(const char *string, uint8_t x, uint8_t y, uint16_t fgColour, uint16_t bgColour)
{
 8002404:	b590      	push	{r4, r7, lr}
 8002406:	b087      	sub	sp, #28
 8002408:	af02      	add	r7, sp, #8
 800240a:	6078      	str	r0, [r7, #4]
 800240c:	4608      	mov	r0, r1
 800240e:	4611      	mov	r1, r2
 8002410:	461a      	mov	r2, r3
 8002412:	4603      	mov	r3, r0
 8002414:	70fb      	strb	r3, [r7, #3]
 8002416:	460b      	mov	r3, r1
 8002418:	70bb      	strb	r3, [r7, #2]
 800241a:	4613      	mov	r3, r2
 800241c:	803b      	strh	r3, [r7, #0]
	uint8_t origin = x;
 800241e:	78fb      	ldrb	r3, [r7, #3]
 8002420:	73bb      	strb	r3, [r7, #14]
	uint8_t characterNumber;

	for (characterNumber = 0; characterNumber < strlen(string); characterNumber++)
 8002422:	2300      	movs	r3, #0
 8002424:	73fb      	strb	r3, [r7, #15]
 8002426:	e01c      	b.n	8002462 <lcdPutS+0x5e>
	{
		// Check if we are out of bounds and move to
		// the next line if we are
		if (x > 121)
 8002428:	78fb      	ldrb	r3, [r7, #3]
 800242a:	2b79      	cmp	r3, #121	; 0x79
 800242c:	d904      	bls.n	8002438 <lcdPutS+0x34>
		{
			x = origin;
 800242e:	7bbb      	ldrb	r3, [r7, #14]
 8002430:	70fb      	strb	r3, [r7, #3]
			y += 8;
 8002432:	78bb      	ldrb	r3, [r7, #2]
 8002434:	3308      	adds	r3, #8
 8002436:	70bb      	strb	r3, [r7, #2]
		}

		// If we move past the bottom of the screen just exit
		if (y > 120) break;
 8002438:	78bb      	ldrb	r3, [r7, #2]
 800243a:	2b78      	cmp	r3, #120	; 0x78
 800243c:	d819      	bhi.n	8002472 <lcdPutS+0x6e>

		// Plot the current character
		lcdPutCh(string[characterNumber], x, y, fgColour, bgColour);
 800243e:	7bfb      	ldrb	r3, [r7, #15]
 8002440:	687a      	ldr	r2, [r7, #4]
 8002442:	4413      	add	r3, r2
 8002444:	7818      	ldrb	r0, [r3, #0]
 8002446:	883c      	ldrh	r4, [r7, #0]
 8002448:	78ba      	ldrb	r2, [r7, #2]
 800244a:	78f9      	ldrb	r1, [r7, #3]
 800244c:	8c3b      	ldrh	r3, [r7, #32]
 800244e:	9300      	str	r3, [sp, #0]
 8002450:	4623      	mov	r3, r4
 8002452:	f7ff ff29 	bl	80022a8 <lcdPutCh>
		x += 6;
 8002456:	78fb      	ldrb	r3, [r7, #3]
 8002458:	3306      	adds	r3, #6
 800245a:	70fb      	strb	r3, [r7, #3]
void lcdPutS(const char *string, uint8_t x, uint8_t y, uint16_t fgColour, uint16_t bgColour)
{
	uint8_t origin = x;
	uint8_t characterNumber;

	for (characterNumber = 0; characterNumber < strlen(string); characterNumber++)
 800245c:	7bfb      	ldrb	r3, [r7, #15]
 800245e:	3301      	adds	r3, #1
 8002460:	73fb      	strb	r3, [r7, #15]
 8002462:	7bfc      	ldrb	r4, [r7, #15]
 8002464:	6878      	ldr	r0, [r7, #4]
 8002466:	f7fd fe89 	bl	800017c <strlen>
 800246a:	4603      	mov	r3, r0
 800246c:	429c      	cmp	r4, r3
 800246e:	d3db      	bcc.n	8002428 <lcdPutS+0x24>

		// Plot the current character
		lcdPutCh(string[characterNumber], x, y, fgColour, bgColour);
		x += 6;
	}
}
 8002470:	e000      	b.n	8002474 <lcdPutS+0x70>
			x = origin;
			y += 8;
		}

		// If we move past the bottom of the screen just exit
		if (y > 120) break;
 8002472:	bf00      	nop

		// Plot the current character
		lcdPutCh(string[characterNumber], x, y, fgColour, bgColour);
		x += 6;
	}
}
 8002474:	bf00      	nop
 8002476:	3714      	adds	r7, #20
 8002478:	46bd      	mov	sp, r7
 800247a:	bd90      	pop	{r4, r7, pc}

0800247c <DMA1_Channel7_IRQHandler>:


volatile int16_t data[14], test;

// prerusenie od MPU6050 pre DMA pristup
void DMA1_Channel7_IRQHandler(void) {
 800247c:	b580      	push	{r7, lr}
 800247e:	af00      	add	r7, sp, #0
	// ak nastalo prerusenie
	if (DMA_GetFlagStatus(DMA1_FLAG_TC7)) {
 8002480:	f04f 7000 	mov.w	r0, #33554432	; 0x2000000
 8002484:	f7fe f9b4 	bl	80007f0 <DMA_GetFlagStatus>
 8002488:	4603      	mov	r3, r0
 800248a:	2b00      	cmp	r3, #0
 800248c:	d06c      	beq.n	8002568 <DMA1_Channel7_IRQHandler+0xec>
		// vynulujeme vlajku prerusenia
		DMA_ClearFlag(DMA1_FLAG_TC7);
 800248e:	f04f 7000 	mov.w	r0, #33554432	; 0x2000000
 8002492:	f7fe f9d5 	bl	8000840 <DMA_ClearFlag>
		// vypneme DMA prenos
		I2C_DMACmd(I2C1, DISABLE);
 8002496:	2100      	movs	r1, #0
 8002498:	4834      	ldr	r0, [pc, #208]	; (800256c <DMA1_Channel7_IRQHandler+0xf0>)
 800249a:	f7fe fc3d 	bl	8000d18 <I2C_DMACmd>
		// vygenerujeme koniec prenosu
		I2C_GenerateSTOP(I2C1, ENABLE);
 800249e:	2101      	movs	r1, #1
 80024a0:	4832      	ldr	r0, [pc, #200]	; (800256c <DMA1_Channel7_IRQHandler+0xf0>)
 80024a2:	f7fe fbeb 	bl	8000c7c <I2C_GenerateSTOP>
		// vypneme DMA kanal
		DMA_Cmd(DMA1_Channel7, DISABLE);
 80024a6:	2100      	movs	r1, #0
 80024a8:	4831      	ldr	r0, [pc, #196]	; (8002570 <DMA1_Channel7_IRQHandler+0xf4>)
 80024aa:	f7fe f959 	bl	8000760 <DMA_Cmd>

		if(I2C1_getReadRegister() == MPU6050_WHO_AM_I) {
 80024ae:	f7ff f847 	bl	8001540 <I2C1_getReadRegister>
 80024b2:	4603      	mov	r3, r0
 80024b4:	2b75      	cmp	r3, #117	; 0x75
 80024b6:	d106      	bne.n	80024c6 <DMA1_Channel7_IRQHandler+0x4a>
			test = (int16_t) I2C1_getRxBuffer(0);
 80024b8:	2000      	movs	r0, #0
 80024ba:	f7ff f831 	bl	8001520 <I2C1_getRxBuffer>
 80024be:	4603      	mov	r3, r0
 80024c0:	b21a      	sxth	r2, r3
 80024c2:	4b2c      	ldr	r3, [pc, #176]	; (8002574 <DMA1_Channel7_IRQHandler+0xf8>)
 80024c4:	801a      	strh	r2, [r3, #0]
		}
		// nacitame data do struktury
		if(I2C1_getReadRegister() == MPU6050_ACCEL_XOUT_H){
 80024c6:	f7ff f83b 	bl	8001540 <I2C1_getReadRegister>
 80024ca:	4603      	mov	r3, r0
 80024cc:	2b3b      	cmp	r3, #59	; 0x3b
 80024ce:	d107      	bne.n	80024e0 <DMA1_Channel7_IRQHandler+0x64>
			data[0] = (int16_t) I2C1_getRxBuffer(0);
 80024d0:	2000      	movs	r0, #0
 80024d2:	f7ff f825 	bl	8001520 <I2C1_getRxBuffer>
 80024d6:	4603      	mov	r3, r0
 80024d8:	b21a      	sxth	r2, r3
 80024da:	4b27      	ldr	r3, [pc, #156]	; (8002578 <DMA1_Channel7_IRQHandler+0xfc>)
 80024dc:	801a      	strh	r2, [r3, #0]
 80024de:	e03f      	b.n	8002560 <DMA1_Channel7_IRQHandler+0xe4>
		}
		else if(I2C1_getReadRegister() == MPU6050_ACCEL_XOUT_L){
 80024e0:	f7ff f82e 	bl	8001540 <I2C1_getReadRegister>
 80024e4:	4603      	mov	r3, r0
 80024e6:	2b3c      	cmp	r3, #60	; 0x3c
 80024e8:	d107      	bne.n	80024fa <DMA1_Channel7_IRQHandler+0x7e>
			data[1] = (int16_t) I2C1_getRxBuffer(0);
 80024ea:	2000      	movs	r0, #0
 80024ec:	f7ff f818 	bl	8001520 <I2C1_getRxBuffer>
 80024f0:	4603      	mov	r3, r0
 80024f2:	b21a      	sxth	r2, r3
 80024f4:	4b20      	ldr	r3, [pc, #128]	; (8002578 <DMA1_Channel7_IRQHandler+0xfc>)
 80024f6:	805a      	strh	r2, [r3, #2]
 80024f8:	e032      	b.n	8002560 <DMA1_Channel7_IRQHandler+0xe4>
		}
		else if(I2C1_getReadRegister() == MPU6050_ACCEL_YOUT_H){
 80024fa:	f7ff f821 	bl	8001540 <I2C1_getReadRegister>
 80024fe:	4603      	mov	r3, r0
 8002500:	2b3d      	cmp	r3, #61	; 0x3d
 8002502:	d107      	bne.n	8002514 <DMA1_Channel7_IRQHandler+0x98>
			data[2] = (int16_t) I2C1_getRxBuffer(0);
 8002504:	2000      	movs	r0, #0
 8002506:	f7ff f80b 	bl	8001520 <I2C1_getRxBuffer>
 800250a:	4603      	mov	r3, r0
 800250c:	b21a      	sxth	r2, r3
 800250e:	4b1a      	ldr	r3, [pc, #104]	; (8002578 <DMA1_Channel7_IRQHandler+0xfc>)
 8002510:	809a      	strh	r2, [r3, #4]
 8002512:	e025      	b.n	8002560 <DMA1_Channel7_IRQHandler+0xe4>
		}
		else if(I2C1_getReadRegister() == MPU6050_ACCEL_YOUT_L){
 8002514:	f7ff f814 	bl	8001540 <I2C1_getReadRegister>
 8002518:	4603      	mov	r3, r0
 800251a:	2b3e      	cmp	r3, #62	; 0x3e
 800251c:	d107      	bne.n	800252e <DMA1_Channel7_IRQHandler+0xb2>
			data[3] = (int16_t) I2C1_getRxBuffer(0);
 800251e:	2000      	movs	r0, #0
 8002520:	f7fe fffe 	bl	8001520 <I2C1_getRxBuffer>
 8002524:	4603      	mov	r3, r0
 8002526:	b21a      	sxth	r2, r3
 8002528:	4b13      	ldr	r3, [pc, #76]	; (8002578 <DMA1_Channel7_IRQHandler+0xfc>)
 800252a:	80da      	strh	r2, [r3, #6]
 800252c:	e018      	b.n	8002560 <DMA1_Channel7_IRQHandler+0xe4>
		}
		else if(I2C1_getReadRegister() == MPU6050_ACCEL_ZOUT_H){
 800252e:	f7ff f807 	bl	8001540 <I2C1_getReadRegister>
 8002532:	4603      	mov	r3, r0
 8002534:	2b3f      	cmp	r3, #63	; 0x3f
 8002536:	d107      	bne.n	8002548 <DMA1_Channel7_IRQHandler+0xcc>
			data[4] = (int16_t) I2C1_getRxBuffer(0);
 8002538:	2000      	movs	r0, #0
 800253a:	f7fe fff1 	bl	8001520 <I2C1_getRxBuffer>
 800253e:	4603      	mov	r3, r0
 8002540:	b21a      	sxth	r2, r3
 8002542:	4b0d      	ldr	r3, [pc, #52]	; (8002578 <DMA1_Channel7_IRQHandler+0xfc>)
 8002544:	811a      	strh	r2, [r3, #8]
 8002546:	e00b      	b.n	8002560 <DMA1_Channel7_IRQHandler+0xe4>
		}
		else if(I2C1_getReadRegister() == MPU6050_ACCEL_ZOUT_L){
 8002548:	f7fe fffa 	bl	8001540 <I2C1_getReadRegister>
 800254c:	4603      	mov	r3, r0
 800254e:	2b40      	cmp	r3, #64	; 0x40
 8002550:	d106      	bne.n	8002560 <DMA1_Channel7_IRQHandler+0xe4>
			data[5] = (int16_t) I2C1_getRxBuffer(0);
 8002552:	2000      	movs	r0, #0
 8002554:	f7fe ffe4 	bl	8001520 <I2C1_getRxBuffer>
 8002558:	4603      	mov	r3, r0
 800255a:	b21a      	sxth	r2, r3
 800255c:	4b06      	ldr	r3, [pc, #24]	; (8002578 <DMA1_Channel7_IRQHandler+0xfc>)
 800255e:	815a      	strh	r2, [r3, #10]
		}

		I2C1_clearReadRegister();
 8002560:	f7fe fff8 	bl	8001554 <I2C1_clearReadRegister>
		I2C1_clearDeviceAddress();
 8002564:	f7fe ffd0 	bl	8001508 <I2C1_clearDeviceAddress>
	}
}
 8002568:	bf00      	nop
 800256a:	bd80      	pop	{r7, pc}
 800256c:	40005400 	.word	0x40005400
 8002570:	40026080 	.word	0x40026080
 8002574:	20000074 	.word	0x20000074
 8002578:	20000078 	.word	0x20000078

0800257c <main>:


int main(void){
 800257c:	b5f0      	push	{r4, r5, r6, r7, lr}
 800257e:	b0ad      	sub	sp, #180	; 0xb4
 8002580:	af02      	add	r7, sp, #8
	uint16_t biela = decodeRgbValue(31, 31, 31);
 8002582:	221f      	movs	r2, #31
 8002584:	211f      	movs	r1, #31
 8002586:	201f      	movs	r0, #31
 8002588:	f7ff ff02 	bl	8002390 <decodeRgbValue>
 800258c:	4603      	mov	r3, r0
 800258e:	f8a7 309e 	strh.w	r3, [r7, #158]	; 0x9e
	uint16_t cierna = decodeRgbValue(0, 0, 0);
 8002592:	2200      	movs	r2, #0
 8002594:	2100      	movs	r1, #0
 8002596:	2000      	movs	r0, #0
 8002598:	f7ff fefa 	bl	8002390 <decodeRgbValue>
 800259c:	4603      	mov	r3, r0
 800259e:	f8a7 309c 	strh.w	r3, [r7, #156]	; 0x9c
	//uint16_t cervena = decodeRgbValue(31, 0, 0);
	uint16_t zelena = decodeRgbValue(0, 31, 0);
 80025a2:	2200      	movs	r2, #0
 80025a4:	211f      	movs	r1, #31
 80025a6:	2000      	movs	r0, #0
 80025a8:	f7ff fef2 	bl	8002390 <decodeRgbValue>
 80025ac:	4603      	mov	r3, r0
 80025ae:	f8a7 309a 	strh.w	r3, [r7, #154]	; 0x9a
	//uint16_t modra = decodeRgbValue(0, 0, 31);
	char error = 0;
 80025b2:	2300      	movs	r3, #0
 80025b4:	f887 3099 	strb.w	r3, [r7, #153]	; 0x99
	MPU6050_t MPU6050_Data;
	char str[120];

	// inicializacne funkcie
	initSPI2();
 80025b8:	f000 fa28 	bl	8002a0c <initSPI2>
	initCD_Pin();
 80025bc:	f000 fab8 	bl	8002b30 <initCD_Pin>
	initCS_Pin();
 80025c0:	f000 fa98 	bl	8002af4 <initCS_Pin>
	initRES_Pin();
 80025c4:	f000 faea 	bl	8002b9c <initRES_Pin>
	initUSART2();
 80025c8:	f7ff f918 	bl	80017fc <initUSART2>
	initI2C1();
 80025cc:	f7fe ffce 	bl	800156c <initI2C1>
	error = initMPU6050(&MPU6050_Data,MPU6050_Zariadenie_0,MPU6050_Akcelerometer_2G,MPU6050_Gyroskop_250s);
 80025d0:	f107 007c 	add.w	r0, r7, #124	; 0x7c
 80025d4:	2300      	movs	r3, #0
 80025d6:	2200      	movs	r2, #0
 80025d8:	2100      	movs	r1, #0
 80025da:	f000 f94d 	bl	8002878 <initMPU6050>
 80025de:	4603      	mov	r3, r0
 80025e0:	f887 3099 	strb.w	r3, [r7, #153]	; 0x99
	if(error!=0){
 80025e4:	f897 3099 	ldrb.w	r3, [r7, #153]	; 0x99
 80025e8:	2b00      	cmp	r3, #0
 80025ea:	d005      	beq.n	80025f8 <main+0x7c>
		sendUSART2("Nastala chyba pri inicializacii MPU6050 !\n\r");
 80025ec:	4857      	ldr	r0, [pc, #348]	; (800274c <main+0x1d0>)
 80025ee:	f7ff f9e9 	bl	80019c4 <sendUSART2>
		return error;
 80025f2:	f897 3099 	ldrb.w	r3, [r7, #153]	; 0x99
 80025f6:	e0a4      	b.n	8002742 <main+0x1c6>
	}
	lcdInitialise(LCD_ORIENTATION0);
 80025f8:	2000      	movs	r0, #0
 80025fa:	f7ff fbef 	bl	8001ddc <lcdInitialise>
	clearDisplay(cierna);
 80025fe:	f8b7 309c 	ldrh.w	r3, [r7, #156]	; 0x9c
 8002602:	4618      	mov	r0, r3
 8002604:	f7ff f9fe 	bl	8001a04 <clearDisplay>
	lcdMriezka3x3(54, 93, 6, biela, cierna);
 8002608:	f8b7 209e 	ldrh.w	r2, [r7, #158]	; 0x9e
 800260c:	f8b7 309c 	ldrh.w	r3, [r7, #156]	; 0x9c
 8002610:	9300      	str	r3, [sp, #0]
 8002612:	4613      	mov	r3, r2
 8002614:	2206      	movs	r2, #6
 8002616:	215d      	movs	r1, #93	; 0x5d
 8002618:	2036      	movs	r0, #54	; 0x36
 800261a:	f7ff faeb 	bl	8001bf4 <lcdMriezka3x3>

	//hod kockou na zaklade akcelerometra
	lcdPutS("Hod kockou", lcdTextX(1), lcdTextY(9), biela, cierna);
 800261e:	2001      	movs	r0, #1
 8002620:	f7ff fed2 	bl	80023c8 <lcdTextX>
 8002624:	4603      	mov	r3, r0
 8002626:	461c      	mov	r4, r3
 8002628:	2009      	movs	r0, #9
 800262a:	f7ff fedd 	bl	80023e8 <lcdTextY>
 800262e:	4603      	mov	r3, r0
 8002630:	4619      	mov	r1, r3
 8002632:	f8b7 209e 	ldrh.w	r2, [r7, #158]	; 0x9e
 8002636:	f8b7 309c 	ldrh.w	r3, [r7, #156]	; 0x9c
 800263a:	9300      	str	r3, [sp, #0]
 800263c:	4613      	mov	r3, r2
 800263e:	460a      	mov	r2, r1
 8002640:	4621      	mov	r1, r4
 8002642:	4843      	ldr	r0, [pc, #268]	; (8002750 <main+0x1d4>)
 8002644:	f7ff fede 	bl	8002404 <lcdPutS>
	lcdRectangle(45, 85, 83, 122, biela);
 8002648:	f8b7 309e 	ldrh.w	r3, [r7, #158]	; 0x9e
 800264c:	9300      	str	r3, [sp, #0]
 800264e:	237a      	movs	r3, #122	; 0x7a
 8002650:	2253      	movs	r2, #83	; 0x53
 8002652:	2155      	movs	r1, #85	; 0x55
 8002654:	202d      	movs	r0, #45	; 0x2d
 8002656:	f7ff fd83 	bl	8002160 <lcdRectangle>
	////Mriezka pre stvorceky
	//lcdMriezka3x3(51, 90, 3, zelena, cierna);

	//Mriezka pre kruzky
	lcdMriezka3x3(54, 93, 6, zelena, cierna);
 800265a:	f8b7 209a 	ldrh.w	r2, [r7, #154]	; 0x9a
 800265e:	f8b7 309c 	ldrh.w	r3, [r7, #156]	; 0x9c
 8002662:	9300      	str	r3, [sp, #0]
 8002664:	4613      	mov	r3, r2
 8002666:	2206      	movs	r2, #6
 8002668:	215d      	movs	r1, #93	; 0x5d
 800266a:	2036      	movs	r0, #54	; 0x36
 800266c:	f7ff fac2 	bl	8001bf4 <lcdMriezka3x3>

	//nahodny generator
	lcdPutS("Nahodny generator", lcdTextX(1), lcdTextY(1), biela, cierna);
 8002670:	2001      	movs	r0, #1
 8002672:	f7ff fea9 	bl	80023c8 <lcdTextX>
 8002676:	4603      	mov	r3, r0
 8002678:	461c      	mov	r4, r3
 800267a:	2001      	movs	r0, #1
 800267c:	f7ff feb4 	bl	80023e8 <lcdTextY>
 8002680:	4603      	mov	r3, r0
 8002682:	4619      	mov	r1, r3
 8002684:	f8b7 209e 	ldrh.w	r2, [r7, #158]	; 0x9e
 8002688:	f8b7 309c 	ldrh.w	r3, [r7, #156]	; 0x9c
 800268c:	9300      	str	r3, [sp, #0]
 800268e:	4613      	mov	r3, r2
 8002690:	460a      	mov	r2, r1
 8002692:	4621      	mov	r1, r4
 8002694:	482f      	ldr	r0, [pc, #188]	; (8002754 <main+0x1d8>)
 8002696:	f7ff feb5 	bl	8002404 <lcdPutS>
	lcdRectangle(45, 23, 83, 60, biela);
 800269a:	f8b7 309e 	ldrh.w	r3, [r7, #158]	; 0x9e
 800269e:	9300      	str	r3, [sp, #0]
 80026a0:	233c      	movs	r3, #60	; 0x3c
 80026a2:	2253      	movs	r2, #83	; 0x53
 80026a4:	2117      	movs	r1, #23
 80026a6:	202d      	movs	r0, #45	; 0x2d
 80026a8:	f7ff fd5a 	bl	8002160 <lcdRectangle>

	while(1){
		MPU6050_readAcc((int16_t*)&data, &MPU6050_Data);
 80026ac:	f107 037c 	add.w	r3, r7, #124	; 0x7c
 80026b0:	4619      	mov	r1, r3
 80026b2:	4829      	ldr	r0, [pc, #164]	; (8002758 <main+0x1dc>)
 80026b4:	f000 f890 	bl	80027d8 <MPU6050_readAcc>
		sprintf(str, "Akcelerometer\n\r- X:%d\n\r- Y:%d\n\r- Z:%d\n\r- Strana:%d\n\r",
				MPU6050_Data.Akcelerometer_X,
 80026b8:	f9b7 3088 	ldrsh.w	r3, [r7, #136]	; 0x88
	lcdPutS("Nahodny generator", lcdTextX(1), lcdTextY(1), biela, cierna);
	lcdRectangle(45, 23, 83, 60, biela);

	while(1){
		MPU6050_readAcc((int16_t*)&data, &MPU6050_Data);
		sprintf(str, "Akcelerometer\n\r- X:%d\n\r- Y:%d\n\r- Z:%d\n\r- Strana:%d\n\r",
 80026bc:	461d      	mov	r5, r3
				MPU6050_Data.Akcelerometer_X,
		        MPU6050_Data.Akcelerometer_Y,
 80026be:	f9b7 308a 	ldrsh.w	r3, [r7, #138]	; 0x8a
	lcdPutS("Nahodny generator", lcdTextX(1), lcdTextY(1), biela, cierna);
	lcdRectangle(45, 23, 83, 60, biela);

	while(1){
		MPU6050_readAcc((int16_t*)&data, &MPU6050_Data);
		sprintf(str, "Akcelerometer\n\r- X:%d\n\r- Y:%d\n\r- Z:%d\n\r- Strana:%d\n\r",
 80026c2:	461e      	mov	r6, r3
				MPU6050_Data.Akcelerometer_X,
		        MPU6050_Data.Akcelerometer_Y,
		        MPU6050_Data.Akcelerometer_Z,
 80026c4:	f9b7 308c 	ldrsh.w	r3, [r7, #140]	; 0x8c
	lcdPutS("Nahodny generator", lcdTextX(1), lcdTextY(1), biela, cierna);
	lcdRectangle(45, 23, 83, 60, biela);

	while(1){
		MPU6050_readAcc((int16_t*)&data, &MPU6050_Data);
		sprintf(str, "Akcelerometer\n\r- X:%d\n\r- Y:%d\n\r- Z:%d\n\r- Strana:%d\n\r",
 80026c8:	461c      	mov	r4, r3
				MPU6050_Data.Akcelerometer_X,
		        MPU6050_Data.Akcelerometer_Y,
		        MPU6050_Data.Akcelerometer_Z,
				diceSide(&MPU6050_Data));
 80026ca:	f107 037c 	add.w	r3, r7, #124	; 0x7c
 80026ce:	4618      	mov	r0, r3
 80026d0:	f7ff f8e8 	bl	80018a4 <diceSide>
 80026d4:	4603      	mov	r3, r0
	lcdPutS("Nahodny generator", lcdTextX(1), lcdTextY(1), biela, cierna);
	lcdRectangle(45, 23, 83, 60, biela);

	while(1){
		MPU6050_readAcc((int16_t*)&data, &MPU6050_Data);
		sprintf(str, "Akcelerometer\n\r- X:%d\n\r- Y:%d\n\r- Z:%d\n\r- Strana:%d\n\r",
 80026d6:	1d38      	adds	r0, r7, #4
 80026d8:	9301      	str	r3, [sp, #4]
 80026da:	9400      	str	r4, [sp, #0]
 80026dc:	4633      	mov	r3, r6
 80026de:	462a      	mov	r2, r5
 80026e0:	491e      	ldr	r1, [pc, #120]	; (800275c <main+0x1e0>)
 80026e2:	f000 fca1 	bl	8003028 <siprintf>
				MPU6050_Data.Akcelerometer_X,
		        MPU6050_Data.Akcelerometer_Y,
		        MPU6050_Data.Akcelerometer_Z,
				diceSide(&MPU6050_Data));
		sendUSART2(str);
 80026e6:	1d3b      	adds	r3, r7, #4
 80026e8:	4618      	mov	r0, r3
 80026ea:	f7ff f96b 	bl	80019c4 <sendUSART2>
		//Delay(50);

		for(int i=0;i<6;i++){
 80026ee:	2300      	movs	r3, #0
 80026f0:	f8c7 30a4 	str.w	r3, [r7, #164]	; 0xa4
 80026f4:	e020      	b.n	8002738 <main+0x1bc>
			////Mriezka pre stvorceky
			//lcdMriezka3x3(51, 28, i+1, biela, cierna);

			//Mriezka pre kruzky
			lcdMriezka3x3(54, 31, i+1, biela, cierna);
 80026f6:	f8d7 30a4 	ldr.w	r3, [r7, #164]	; 0xa4
 80026fa:	b29b      	uxth	r3, r3
 80026fc:	3301      	adds	r3, #1
 80026fe:	b29a      	uxth	r2, r3
 8002700:	f8b7 109e 	ldrh.w	r1, [r7, #158]	; 0x9e
 8002704:	f8b7 309c 	ldrh.w	r3, [r7, #156]	; 0x9c
 8002708:	9300      	str	r3, [sp, #0]
 800270a:	460b      	mov	r3, r1
 800270c:	211f      	movs	r1, #31
 800270e:	2036      	movs	r0, #54	; 0x36
 8002710:	f7ff fa70 	bl	8001bf4 <lcdMriezka3x3>
			for(int j=0;j<150;j++){
 8002714:	2300      	movs	r3, #0
 8002716:	f8c7 30a0 	str.w	r3, [r7, #160]	; 0xa0
 800271a:	e004      	b.n	8002726 <main+0x1aa>
 800271c:	f8d7 30a0 	ldr.w	r3, [r7, #160]	; 0xa0
 8002720:	3301      	adds	r3, #1
 8002722:	f8c7 30a0 	str.w	r3, [r7, #160]	; 0xa0
 8002726:	f8d7 30a0 	ldr.w	r3, [r7, #160]	; 0xa0
 800272a:	2b95      	cmp	r3, #149	; 0x95
 800272c:	ddf6      	ble.n	800271c <main+0x1a0>
		        MPU6050_Data.Akcelerometer_Z,
				diceSide(&MPU6050_Data));
		sendUSART2(str);
		//Delay(50);

		for(int i=0;i<6;i++){
 800272e:	f8d7 30a4 	ldr.w	r3, [r7, #164]	; 0xa4
 8002732:	3301      	adds	r3, #1
 8002734:	f8c7 30a4 	str.w	r3, [r7, #164]	; 0xa4
 8002738:	f8d7 30a4 	ldr.w	r3, [r7, #164]	; 0xa4
 800273c:	2b05      	cmp	r3, #5
 800273e:	ddda      	ble.n	80026f6 <main+0x17a>
				//Delay(1000);
				// pomocna funkcia na zobrazenie informacii odoslanim na seriovu linku
				//sendUSART2("Test\n\r");
			}
		}
	}
 8002740:	e7b4      	b.n	80026ac <main+0x130>
	return 0;
}
 8002742:	4618      	mov	r0, r3
 8002744:	37ac      	adds	r7, #172	; 0xac
 8002746:	46bd      	mov	sp, r7
 8002748:	bdf0      	pop	{r4, r5, r6, r7, pc}
 800274a:	bf00      	nop
 800274c:	080030b8 	.word	0x080030b8
 8002750:	080030e4 	.word	0x080030e4
 8002754:	080030f0 	.word	0x080030f0
 8002758:	20000078 	.word	0x20000078
 800275c:	08003104 	.word	0x08003104

08002760 <TIM7_IRQHandler>:
static uint16_t backlitModulo = 0;
static uint16_t shimmerModulo = 0;
static uint16_t shimmerDutyCycle = SHIMMER_DUTY_CYCLE;

void TIM7_IRQHandler(void)
{
 8002760:	b598      	push	{r3, r4, r7, lr}
 8002762:	af00      	add	r7, sp, #0
	if (TIM_GetITStatus(TIM7, TIM_IT_Update) == SET)
 8002764:	2101      	movs	r1, #1
 8002766:	4817      	ldr	r0, [pc, #92]	; (80027c4 <TIM7_IRQHandler+0x64>)
 8002768:	f7fe fd4a 	bl	8001200 <TIM_GetITStatus>
 800276c:	4603      	mov	r3, r0
 800276e:	2b01      	cmp	r3, #1
 8002770:	d126      	bne.n	80027c0 <TIM7_IRQHandler+0x60>
	{
		backlitTimer++;
 8002772:	4b15      	ldr	r3, [pc, #84]	; (80027c8 <TIM7_IRQHandler+0x68>)
 8002774:	cb18      	ldmia	r3, {r3, r4}
 8002776:	3301      	adds	r3, #1
 8002778:	f144 0400 	adc.w	r4, r4, #0
 800277c:	4a12      	ldr	r2, [pc, #72]	; (80027c8 <TIM7_IRQHandler+0x68>)
 800277e:	e882 0018 	stmia.w	r2, {r3, r4}

		shimmerModulo = backlitTimer % SHIMMER_PERIOD;
 8002782:	4b11      	ldr	r3, [pc, #68]	; (80027c8 <TIM7_IRQHandler+0x68>)
 8002784:	e9d3 0100 	ldrd	r0, r1, [r3]
 8002788:	f242 7210 	movw	r2, #10000	; 0x2710
 800278c:	f04f 0300 	mov.w	r3, #0
 8002790:	f7fd fcfc 	bl	800018c <__aeabi_uldivmod>
 8002794:	461c      	mov	r4, r3
 8002796:	4613      	mov	r3, r2
 8002798:	b29a      	uxth	r2, r3
 800279a:	4b0c      	ldr	r3, [pc, #48]	; (80027cc <TIM7_IRQHandler+0x6c>)
 800279c:	801a      	strh	r2, [r3, #0]

		if(shimmerDutyCycle < shimmerModulo)
 800279e:	4b0c      	ldr	r3, [pc, #48]	; (80027d0 <TIM7_IRQHandler+0x70>)
 80027a0:	881a      	ldrh	r2, [r3, #0]
 80027a2:	4b0a      	ldr	r3, [pc, #40]	; (80027cc <TIM7_IRQHandler+0x6c>)
 80027a4:	881b      	ldrh	r3, [r3, #0]
 80027a6:	429a      	cmp	r2, r3
 80027a8:	d203      	bcs.n	80027b2 <TIM7_IRQHandler+0x52>
		{
			gShimmerFlag = 0;
 80027aa:	4b0a      	ldr	r3, [pc, #40]	; (80027d4 <TIM7_IRQHandler+0x74>)
 80027ac:	2200      	movs	r2, #0
 80027ae:	701a      	strb	r2, [r3, #0]
 80027b0:	e002      	b.n	80027b8 <TIM7_IRQHandler+0x58>
		}
		else
		{
			gShimmerFlag = 1;
 80027b2:	4b08      	ldr	r3, [pc, #32]	; (80027d4 <TIM7_IRQHandler+0x74>)
 80027b4:	2201      	movs	r2, #1
 80027b6:	701a      	strb	r2, [r3, #0]
				GPIOB->BSRRH = GPIO_Pin_0;
				GPIOA->BSRRH = GPIO_Pin_7;
			}
		}*/

		TIM_ClearITPendingBit(TIM7, TIM_IT_Update);
 80027b8:	2101      	movs	r1, #1
 80027ba:	4802      	ldr	r0, [pc, #8]	; (80027c4 <TIM7_IRQHandler+0x64>)
 80027bc:	f7fe fd4a 	bl	8001254 <TIM_ClearITPendingBit>
	}
}
 80027c0:	bf00      	nop
 80027c2:	bd98      	pop	{r3, r4, r7, pc}
 80027c4:	40001400 	.word	0x40001400
 80027c8:	20000040 	.word	0x20000040
 80027cc:	20000048 	.word	0x20000048
 80027d0:	2000001c 	.word	0x2000001c
 80027d4:	2000003e 	.word	0x2000003e

080027d8 <MPU6050_readAcc>:
#include "ssd1306.h"
#include "elkocka.h"


// nacitame hodnoty akcelerometra
void MPU6050_readAcc(int16_t* data, MPU6050_t* Sensor){
 80027d8:	b580      	push	{r7, lr}
 80027da:	b082      	sub	sp, #8
 80027dc:	af00      	add	r7, sp, #0
 80027de:	6078      	str	r0, [r7, #4]
 80027e0:	6039      	str	r1, [r7, #0]

	// nacitame registre
	I2C1_DMA_Read(MPU6050_I2C_ADDR, MPU6050_ACCEL_XOUT_H, 1);
 80027e2:	2201      	movs	r2, #1
 80027e4:	213b      	movs	r1, #59	; 0x3b
 80027e6:	20d0      	movs	r0, #208	; 0xd0
 80027e8:	f7fe ff7c 	bl	80016e4 <I2C1_DMA_Read>
	I2C1_DMA_Read(MPU6050_I2C_ADDR, MPU6050_ACCEL_XOUT_L, 1);
 80027ec:	2201      	movs	r2, #1
 80027ee:	213c      	movs	r1, #60	; 0x3c
 80027f0:	20d0      	movs	r0, #208	; 0xd0
 80027f2:	f7fe ff77 	bl	80016e4 <I2C1_DMA_Read>
	I2C1_DMA_Read(MPU6050_I2C_ADDR, MPU6050_ACCEL_YOUT_H, 1);
 80027f6:	2201      	movs	r2, #1
 80027f8:	213d      	movs	r1, #61	; 0x3d
 80027fa:	20d0      	movs	r0, #208	; 0xd0
 80027fc:	f7fe ff72 	bl	80016e4 <I2C1_DMA_Read>
	I2C1_DMA_Read(MPU6050_I2C_ADDR, MPU6050_ACCEL_YOUT_L, 1);
 8002800:	2201      	movs	r2, #1
 8002802:	213e      	movs	r1, #62	; 0x3e
 8002804:	20d0      	movs	r0, #208	; 0xd0
 8002806:	f7fe ff6d 	bl	80016e4 <I2C1_DMA_Read>
	I2C1_DMA_Read(MPU6050_I2C_ADDR, MPU6050_ACCEL_ZOUT_H, 1);
 800280a:	2201      	movs	r2, #1
 800280c:	213f      	movs	r1, #63	; 0x3f
 800280e:	20d0      	movs	r0, #208	; 0xd0
 8002810:	f7fe ff68 	bl	80016e4 <I2C1_DMA_Read>
	I2C1_DMA_Read(MPU6050_I2C_ADDR, MPU6050_ACCEL_ZOUT_L, 1);
 8002814:	2201      	movs	r2, #1
 8002816:	2140      	movs	r1, #64	; 0x40
 8002818:	20d0      	movs	r0, #208	; 0xd0
 800281a:	f7fe ff63 	bl	80016e4 <I2C1_DMA_Read>

	// prepocet z registrov
	Sensor->Akcelerometer_X = (int16_t) (data[0] << 8 | data[1]);
 800281e:	687b      	ldr	r3, [r7, #4]
 8002820:	f9b3 3000 	ldrsh.w	r3, [r3]
 8002824:	021b      	lsls	r3, r3, #8
 8002826:	b21a      	sxth	r2, r3
 8002828:	687b      	ldr	r3, [r7, #4]
 800282a:	3302      	adds	r3, #2
 800282c:	f9b3 3000 	ldrsh.w	r3, [r3]
 8002830:	4313      	orrs	r3, r2
 8002832:	b21a      	sxth	r2, r3
 8002834:	683b      	ldr	r3, [r7, #0]
 8002836:	819a      	strh	r2, [r3, #12]
	Sensor->Akcelerometer_Y = (int16_t) (data[2] << 8 | data[3]);
 8002838:	687b      	ldr	r3, [r7, #4]
 800283a:	3304      	adds	r3, #4
 800283c:	f9b3 3000 	ldrsh.w	r3, [r3]
 8002840:	021b      	lsls	r3, r3, #8
 8002842:	b21a      	sxth	r2, r3
 8002844:	687b      	ldr	r3, [r7, #4]
 8002846:	3306      	adds	r3, #6
 8002848:	f9b3 3000 	ldrsh.w	r3, [r3]
 800284c:	4313      	orrs	r3, r2
 800284e:	b21a      	sxth	r2, r3
 8002850:	683b      	ldr	r3, [r7, #0]
 8002852:	81da      	strh	r2, [r3, #14]
	Sensor->Akcelerometer_Z = (int16_t) (data[4] << 8 | data[5]);
 8002854:	687b      	ldr	r3, [r7, #4]
 8002856:	3308      	adds	r3, #8
 8002858:	f9b3 3000 	ldrsh.w	r3, [r3]
 800285c:	021b      	lsls	r3, r3, #8
 800285e:	b21a      	sxth	r2, r3
 8002860:	687b      	ldr	r3, [r7, #4]
 8002862:	330a      	adds	r3, #10
 8002864:	f9b3 3000 	ldrsh.w	r3, [r3]
 8002868:	4313      	orrs	r3, r2
 800286a:	b21a      	sxth	r2, r3
 800286c:	683b      	ldr	r3, [r7, #0]
 800286e:	821a      	strh	r2, [r3, #16]

}
 8002870:	bf00      	nop
 8002872:	3708      	adds	r7, #8
 8002874:	46bd      	mov	sp, r7
 8002876:	bd80      	pop	{r7, pc}

08002878 <initMPU6050>:


char initMPU6050(MPU6050_t* Data, MPU6050_Zariadenie_t DeviceNumber, MPU6050_Akcelerometer_t citlivostA, MPU6050_Gyroskop_t citlivostG){
 8002878:	b580      	push	{r7, lr}
 800287a:	b084      	sub	sp, #16
 800287c:	af00      	add	r7, sp, #0
 800287e:	6078      	str	r0, [r7, #4]
 8002880:	4608      	mov	r0, r1
 8002882:	4611      	mov	r1, r2
 8002884:	461a      	mov	r2, r3
 8002886:	4603      	mov	r3, r0
 8002888:	70fb      	strb	r3, [r7, #3]
 800288a:	460b      	mov	r3, r1
 800288c:	70bb      	strb	r3, [r7, #2]
 800288e:	4613      	mov	r3, r2
 8002890:	707b      	strb	r3, [r7, #1]
	uint8_t temp, buff = 0x00;
 8002892:	2300      	movs	r3, #0
 8002894:	737b      	strb	r3, [r7, #13]
	char error = 0;
 8002896:	2300      	movs	r3, #0
 8002898:	73fb      	strb	r3, [r7, #15]

	// vypocitaj I2C adresu na zaklade cisla zariadenia
	Data->Adresa = MPU6050_I2C_ADDR | (uint8_t)DeviceNumber;
 800289a:	78fb      	ldrb	r3, [r7, #3]
 800289c:	f063 032f 	orn	r3, r3, #47	; 0x2f
 80028a0:	b2da      	uxtb	r2, r3
 80028a2:	687b      	ldr	r3, [r7, #4]
 80028a4:	701a      	strb	r2, [r3, #0]

	// skontrolujeme, ci komunikujeme spravne
	I2C1_DMA_Read(Data->Adresa, MPU6050_WHO_AM_I, 1);
 80028a6:	687b      	ldr	r3, [r7, #4]
 80028a8:	781b      	ldrb	r3, [r3, #0]
 80028aa:	2201      	movs	r2, #1
 80028ac:	2175      	movs	r1, #117	; 0x75
 80028ae:	4618      	mov	r0, r3
 80028b0:	f7fe ff18 	bl	80016e4 <I2C1_DMA_Read>
	Delay(50);
 80028b4:	2032      	movs	r0, #50	; 0x32
 80028b6:	f000 f9a7 	bl	8002c08 <Delay>
	temp = (uint8_t)I2C1_getRxBuffer(0);
 80028ba:	2000      	movs	r0, #0
 80028bc:	f7fe fe30 	bl	8001520 <I2C1_getRxBuffer>
 80028c0:	4603      	mov	r3, r0
 80028c2:	b2db      	uxtb	r3, r3
 80028c4:	73bb      	strb	r3, [r7, #14]
	if(temp!=(uint8_t)MPU6050_I_AM){
 80028c6:	7bbb      	ldrb	r3, [r7, #14]
 80028c8:	2b68      	cmp	r3, #104	; 0x68
 80028ca:	d001      	beq.n	80028d0 <initMPU6050+0x58>
		return 1;
 80028cc:	2301      	movs	r3, #1
 80028ce:	e090      	b.n	80029f2 <initMPU6050+0x17a>
	}

	// zobudime zo sleep rezimu
	I2C1_BytesWrite(Data->Adresa, &buff, 1, MPU6050_PWR_MGMT_1);
 80028d0:	687b      	ldr	r3, [r7, #4]
 80028d2:	7818      	ldrb	r0, [r3, #0]
 80028d4:	f107 010d 	add.w	r1, r7, #13
 80028d8:	236b      	movs	r3, #107	; 0x6b
 80028da:	2201      	movs	r2, #1
 80028dc:	f7fe fe94 	bl	8001608 <I2C1_BytesWrite>

	// konfiguracia akcelerometra
	I2C1_DMA_Read(Data->Adresa, MPU6050_ACCEL_CONFIG, 1);
 80028e0:	687b      	ldr	r3, [r7, #4]
 80028e2:	781b      	ldrb	r3, [r3, #0]
 80028e4:	2201      	movs	r2, #1
 80028e6:	211c      	movs	r1, #28
 80028e8:	4618      	mov	r0, r3
 80028ea:	f7fe fefb 	bl	80016e4 <I2C1_DMA_Read>
	Delay(50);
 80028ee:	2032      	movs	r0, #50	; 0x32
 80028f0:	f000 f98a 	bl	8002c08 <Delay>
	temp = (uint8_t)I2C1_getRxBuffer(0);
 80028f4:	2000      	movs	r0, #0
 80028f6:	f7fe fe13 	bl	8001520 <I2C1_getRxBuffer>
 80028fa:	4603      	mov	r3, r0
 80028fc:	b2db      	uxtb	r3, r3
 80028fe:	73bb      	strb	r3, [r7, #14]
	// nastavime zvolenu citlivost akcelerometra
	temp = (temp & 0xE7) | (uint8_t)citlivostA << 3;
 8002900:	7bbb      	ldrb	r3, [r7, #14]
 8002902:	b25b      	sxtb	r3, r3
 8002904:	f023 0318 	bic.w	r3, r3, #24
 8002908:	b25a      	sxtb	r2, r3
 800290a:	78bb      	ldrb	r3, [r7, #2]
 800290c:	00db      	lsls	r3, r3, #3
 800290e:	b25b      	sxtb	r3, r3
 8002910:	4313      	orrs	r3, r2
 8002912:	b25b      	sxtb	r3, r3
 8002914:	b2db      	uxtb	r3, r3
 8002916:	73bb      	strb	r3, [r7, #14]
	I2C1_BytesWrite(Data->Adresa, &temp, 1, MPU6050_ACCEL_CONFIG);
 8002918:	687b      	ldr	r3, [r7, #4]
 800291a:	7818      	ldrb	r0, [r3, #0]
 800291c:	f107 010e 	add.w	r1, r7, #14
 8002920:	231c      	movs	r3, #28
 8002922:	2201      	movs	r2, #1
 8002924:	f7fe fe70 	bl	8001608 <I2C1_BytesWrite>

	// konfiguracia gyroskopu
	I2C1_DMA_Read(Data->Adresa, MPU6050_GYRO_CONFIG, 1);
 8002928:	687b      	ldr	r3, [r7, #4]
 800292a:	781b      	ldrb	r3, [r3, #0]
 800292c:	2201      	movs	r2, #1
 800292e:	211b      	movs	r1, #27
 8002930:	4618      	mov	r0, r3
 8002932:	f7fe fed7 	bl	80016e4 <I2C1_DMA_Read>
	Delay(50);
 8002936:	2032      	movs	r0, #50	; 0x32
 8002938:	f000 f966 	bl	8002c08 <Delay>
	temp = (uint8_t)I2C1_getRxBuffer(0);
 800293c:	2000      	movs	r0, #0
 800293e:	f7fe fdef 	bl	8001520 <I2C1_getRxBuffer>
 8002942:	4603      	mov	r3, r0
 8002944:	b2db      	uxtb	r3, r3
 8002946:	73bb      	strb	r3, [r7, #14]
	// nastavime zvolenu citlivost gyroskopu
	temp = (temp & 0xE7) | (uint8_t)citlivostG << 3;
 8002948:	7bbb      	ldrb	r3, [r7, #14]
 800294a:	b25b      	sxtb	r3, r3
 800294c:	f023 0318 	bic.w	r3, r3, #24
 8002950:	b25a      	sxtb	r2, r3
 8002952:	787b      	ldrb	r3, [r7, #1]
 8002954:	00db      	lsls	r3, r3, #3
 8002956:	b25b      	sxtb	r3, r3
 8002958:	4313      	orrs	r3, r2
 800295a:	b25b      	sxtb	r3, r3
 800295c:	b2db      	uxtb	r3, r3
 800295e:	73bb      	strb	r3, [r7, #14]
	I2C1_BytesWrite(Data->Adresa, &temp, 1, MPU6050_GYRO_CONFIG);
 8002960:	687b      	ldr	r3, [r7, #4]
 8002962:	7818      	ldrb	r0, [r3, #0]
 8002964:	f107 010e 	add.w	r1, r7, #14
 8002968:	231b      	movs	r3, #27
 800296a:	2201      	movs	r2, #1
 800296c:	f7fe fe4c 	bl	8001608 <I2C1_BytesWrite>

	// nastavime multiplikatory na prepocet jednotiek na zaklade zvolenej citlivosti pre akcelerometer
	switch (citlivostA) {
 8002970:	78bb      	ldrb	r3, [r7, #2]
 8002972:	2b03      	cmp	r3, #3
 8002974:	d81d      	bhi.n	80029b2 <initMPU6050+0x13a>
 8002976:	a201      	add	r2, pc, #4	; (adr r2, 800297c <initMPU6050+0x104>)
 8002978:	f852 f023 	ldr.w	pc, [r2, r3, lsl #2]
 800297c:	0800298d 	.word	0x0800298d
 8002980:	08002997 	.word	0x08002997
 8002984:	080029a1 	.word	0x080029a1
 8002988:	080029ab 	.word	0x080029ab
		case MPU6050_Akcelerometer_2G:
			Data->Akce_Mult = (float)1 / MPU6050_ACCE_SENS_2;
 800298c:	687b      	ldr	r3, [r7, #4]
 800298e:	f04f 5262 	mov.w	r2, #947912704	; 0x38800000
 8002992:	609a      	str	r2, [r3, #8]
			break;
 8002994:	e00e      	b.n	80029b4 <initMPU6050+0x13c>
		case MPU6050_Akcelerometer_4G:
			Data->Akce_Mult = (float)1 / MPU6050_ACCE_SENS_4;
 8002996:	687b      	ldr	r3, [r7, #4]
 8002998:	f04f 5264 	mov.w	r2, #956301312	; 0x39000000
 800299c:	609a      	str	r2, [r3, #8]
			break;
 800299e:	e009      	b.n	80029b4 <initMPU6050+0x13c>
		case MPU6050_Akcelerometer_8G:
			Data->Akce_Mult = (float)1 / MPU6050_ACCE_SENS_8;
 80029a0:	687b      	ldr	r3, [r7, #4]
 80029a2:	f04f 5266 	mov.w	r2, #964689920	; 0x39800000
 80029a6:	609a      	str	r2, [r3, #8]
			break;
 80029a8:	e004      	b.n	80029b4 <initMPU6050+0x13c>
		case MPU6050_Akcelerometer_16G:
			Data->Akce_Mult = (float)1 / MPU6050_ACCE_SENS_16;
 80029aa:	687b      	ldr	r3, [r7, #4]
 80029ac:	f04f 5268 	mov.w	r2, #973078528	; 0x3a000000
 80029b0:	609a      	str	r2, [r3, #8]
		default:
			break;
 80029b2:	bf00      	nop
	}

	// nastavime multiplikatory na prepocet jednotiek na zaklade zvolenej citlivosti pre gyroskop
	switch (citlivostG) {
 80029b4:	787b      	ldrb	r3, [r7, #1]
 80029b6:	2b03      	cmp	r3, #3
 80029b8:	d819      	bhi.n	80029ee <initMPU6050+0x176>
 80029ba:	a201      	add	r2, pc, #4	; (adr r2, 80029c0 <initMPU6050+0x148>)
 80029bc:	f852 f023 	ldr.w	pc, [r2, r3, lsl #2]
 80029c0:	080029d1 	.word	0x080029d1
 80029c4:	080029d9 	.word	0x080029d9
 80029c8:	080029e1 	.word	0x080029e1
 80029cc:	080029e9 	.word	0x080029e9
		case MPU6050_Gyroskop_250s:
			Data->Gyro_Mult = (float)1 / MPU6050_GYRO_SENS_250;
 80029d0:	687b      	ldr	r3, [r7, #4]
 80029d2:	4a0a      	ldr	r2, [pc, #40]	; (80029fc <initMPU6050+0x184>)
 80029d4:	605a      	str	r2, [r3, #4]
			break;
 80029d6:	e00b      	b.n	80029f0 <initMPU6050+0x178>
		case MPU6050_Gyroskop_500s:
			Data->Gyro_Mult = (float)1 / MPU6050_GYRO_SENS_500;
 80029d8:	687b      	ldr	r3, [r7, #4]
 80029da:	4a09      	ldr	r2, [pc, #36]	; (8002a00 <initMPU6050+0x188>)
 80029dc:	605a      	str	r2, [r3, #4]
			break;
 80029de:	e007      	b.n	80029f0 <initMPU6050+0x178>
		case MPU6050_Gyroskop_1000s:
			Data->Gyro_Mult = (float)1 / MPU6050_GYRO_SENS_1000;
 80029e0:	687b      	ldr	r3, [r7, #4]
 80029e2:	4a08      	ldr	r2, [pc, #32]	; (8002a04 <initMPU6050+0x18c>)
 80029e4:	605a      	str	r2, [r3, #4]
			break;
 80029e6:	e003      	b.n	80029f0 <initMPU6050+0x178>
		case MPU6050_Gyroskop_2000s:
			Data->Gyro_Mult = (float)1 / MPU6050_GYRO_SENS_2000;
 80029e8:	687b      	ldr	r3, [r7, #4]
 80029ea:	4a07      	ldr	r2, [pc, #28]	; (8002a08 <initMPU6050+0x190>)
 80029ec:	605a      	str	r2, [r3, #4]
		default:
			break;
 80029ee:	bf00      	nop
	temp = 1<<0;
	// prerusenie nastane, ked su data pripravene na citanie
	I2C1_BytesWrite(MPU6050_I2C_ADDR,&temp,1,MPU6050_INT_ENABLE);
	*/
	// ak je vsetko v poriadku
	return error;
 80029f0:	7bfb      	ldrb	r3, [r7, #15]
}
 80029f2:	4618      	mov	r0, r3
 80029f4:	3710      	adds	r7, #16
 80029f6:	46bd      	mov	sp, r7
 80029f8:	bd80      	pop	{r7, pc}
 80029fa:	bf00      	nop
 80029fc:	3bfa232d 	.word	0x3bfa232d
 8002a00:	3c7a232d 	.word	0x3c7a232d
 8002a04:	3cf9c190 	.word	0x3cf9c190
 8002a08:	3d79c190 	.word	0x3d79c190

08002a0c <initSPI2>:
#include "mcu.h"

//TODO rework to STM32L mcu's

void initSPI2(void)
{
 8002a0c:	b580      	push	{r7, lr}
 8002a0e:	b088      	sub	sp, #32
 8002a10:	af00      	add	r7, sp, #0
	GPIO_InitTypeDef GPIO_InitStructure;

	RCC_APB2PeriphClockCmd(RCC_APB2Periph_SPI1, ENABLE);
 8002a12:	2101      	movs	r1, #1
 8002a14:	f44f 5080 	mov.w	r0, #4096	; 0x1000
 8002a18:	f7fe fb18 	bl	800104c <RCC_APB2PeriphClockCmd>
	RCC_AHBPeriphClockCmd(RCC_AHBPeriph_GPIOB, ENABLE);
 8002a1c:	2101      	movs	r1, #1
 8002a1e:	2002      	movs	r0, #2
 8002a20:	f7fe faf6 	bl	8001010 <RCC_AHBPeriphClockCmd>

	GPIO_InitStructure.GPIO_Mode = GPIO_Mode_AF;
 8002a24:	2302      	movs	r3, #2
 8002a26:	773b      	strb	r3, [r7, #28]
	GPIO_InitStructure.GPIO_OType = GPIO_OType_PP;
 8002a28:	2300      	movs	r3, #0
 8002a2a:	77bb      	strb	r3, [r7, #30]
	GPIO_InitStructure.GPIO_Speed = GPIO_Speed_40MHz;
 8002a2c:	2303      	movs	r3, #3
 8002a2e:	777b      	strb	r3, [r7, #29]
	GPIO_InitStructure.GPIO_PuPd = GPIO_PuPd_NOPULL;
 8002a30:	2300      	movs	r3, #0
 8002a32:	77fb      	strb	r3, [r7, #31]

	//PB3 - SPI2_SCK
	//PB4 - SPI2_MISO
	//PB5 - SPI2_MOSI
	GPIO_InitStructure.GPIO_Pin = GPIO_Pin_3|GPIO_Pin_4|GPIO_Pin_5;
 8002a34:	2338      	movs	r3, #56	; 0x38
 8002a36:	61bb      	str	r3, [r7, #24]
	GPIO_Init(GPIOB, &GPIO_InitStructure);
 8002a38:	f107 0318 	add.w	r3, r7, #24
 8002a3c:	4619      	mov	r1, r3
 8002a3e:	4819      	ldr	r0, [pc, #100]	; (8002aa4 <initSPI2+0x98>)
 8002a40:	f7fd ff18 	bl	8000874 <GPIO_Init>

	GPIO_PinAFConfig(GPIOB, GPIO_PinSource3, GPIO_AF_SPI1);
 8002a44:	2205      	movs	r2, #5
 8002a46:	2103      	movs	r1, #3
 8002a48:	4816      	ldr	r0, [pc, #88]	; (8002aa4 <initSPI2+0x98>)
 8002a4a:	f7fd ffa9 	bl	80009a0 <GPIO_PinAFConfig>
	GPIO_PinAFConfig(GPIOB, GPIO_PinSource4, GPIO_AF_SPI1);
 8002a4e:	2205      	movs	r2, #5
 8002a50:	2104      	movs	r1, #4
 8002a52:	4814      	ldr	r0, [pc, #80]	; (8002aa4 <initSPI2+0x98>)
 8002a54:	f7fd ffa4 	bl	80009a0 <GPIO_PinAFConfig>
	GPIO_PinAFConfig(GPIOB, GPIO_PinSource5, GPIO_AF_SPI1);
 8002a58:	2205      	movs	r2, #5
 8002a5a:	2105      	movs	r1, #5
 8002a5c:	4811      	ldr	r0, [pc, #68]	; (8002aa4 <initSPI2+0x98>)
 8002a5e:	f7fd ff9f 	bl	80009a0 <GPIO_PinAFConfig>

	SPI_InitTypeDef  SPI_InitStructure;
	SPI_InitStructure.SPI_BaudRatePrescaler = SPI_BaudRatePrescaler_2;
 8002a62:	2300      	movs	r3, #0
 8002a64:	823b      	strh	r3, [r7, #16]
	SPI_InitStructure.SPI_CPHA = SPI_CPHA_1Edge;
 8002a66:	2300      	movs	r3, #0
 8002a68:	81bb      	strh	r3, [r7, #12]
	SPI_InitStructure.SPI_CPOL = SPI_CPOL_Low;
 8002a6a:	2300      	movs	r3, #0
 8002a6c:	817b      	strh	r3, [r7, #10]
	SPI_InitStructure.SPI_CRCPolynomial = SPI_CRC_Rx;
 8002a6e:	2301      	movs	r3, #1
 8002a70:	82bb      	strh	r3, [r7, #20]
	SPI_InitStructure.SPI_DataSize = SPI_DataSize_8b;
 8002a72:	2300      	movs	r3, #0
 8002a74:	813b      	strh	r3, [r7, #8]
	SPI_InitStructure.SPI_Direction = SPI_Direction_2Lines_FullDuplex;
 8002a76:	2300      	movs	r3, #0
 8002a78:	80bb      	strh	r3, [r7, #4]
	SPI_InitStructure.SPI_FirstBit = SPI_FirstBit_MSB;
 8002a7a:	2300      	movs	r3, #0
 8002a7c:	827b      	strh	r3, [r7, #18]
	SPI_InitStructure.SPI_Mode = SPI_Mode_Master;
 8002a7e:	f44f 7382 	mov.w	r3, #260	; 0x104
 8002a82:	80fb      	strh	r3, [r7, #6]
	SPI_InitStructure.SPI_NSS = SPI_NSS_Soft;
 8002a84:	f44f 7300 	mov.w	r3, #512	; 0x200
 8002a88:	81fb      	strh	r3, [r7, #14]

	/* Apply SPI configuration after enabling it */
	SPI_Init(SPI1, &SPI_InitStructure);
 8002a8a:	1d3b      	adds	r3, r7, #4
 8002a8c:	4619      	mov	r1, r3
 8002a8e:	4806      	ldr	r0, [pc, #24]	; (8002aa8 <initSPI2+0x9c>)
 8002a90:	f7fe fb36 	bl	8001100 <SPI_Init>
	/* SPI Peripheral Enable */
	SPI_Cmd(SPI1, ENABLE);
 8002a94:	2101      	movs	r1, #1
 8002a96:	4804      	ldr	r0, [pc, #16]	; (8002aa8 <initSPI2+0x9c>)
 8002a98:	f7fe fb76 	bl	8001188 <SPI_Cmd>
}
 8002a9c:	bf00      	nop
 8002a9e:	3720      	adds	r7, #32
 8002aa0:	46bd      	mov	sp, r7
 8002aa2:	bd80      	pop	{r7, pc}
 8002aa4:	40020400 	.word	0x40020400
 8002aa8:	40013000 	.word	0x40013000

08002aac <readWriteSPI2>:

unsigned char readWriteSPI2(unsigned char txData)
{
 8002aac:	b580      	push	{r7, lr}
 8002aae:	b084      	sub	sp, #16
 8002ab0:	af00      	add	r7, sp, #0
 8002ab2:	4603      	mov	r3, r0
 8002ab4:	71fb      	strb	r3, [r7, #7]
	unsigned char  rxData;

	SPI1->DR = txData;
 8002ab6:	4b0e      	ldr	r3, [pc, #56]	; (8002af0 <readWriteSPI2+0x44>)
 8002ab8:	79fa      	ldrb	r2, [r7, #7]
 8002aba:	b292      	uxth	r2, r2
 8002abc:	819a      	strh	r2, [r3, #12]
	// wait until TXE = 1
	while(SPI_I2S_GetFlagStatus(SPI1,SPI_I2S_FLAG_TXE) != SET);
 8002abe:	bf00      	nop
 8002ac0:	2102      	movs	r1, #2
 8002ac2:	480b      	ldr	r0, [pc, #44]	; (8002af0 <readWriteSPI2+0x44>)
 8002ac4:	f7fe fb80 	bl	80011c8 <SPI_I2S_GetFlagStatus>
 8002ac8:	4603      	mov	r3, r0
 8002aca:	2b01      	cmp	r3, #1
 8002acc:	d1f8      	bne.n	8002ac0 <readWriteSPI2+0x14>
	// wait until RXNE = 1
	while(SPI_I2S_GetFlagStatus(SPI1,SPI_I2S_FLAG_RXNE) != SET);
 8002ace:	bf00      	nop
 8002ad0:	2101      	movs	r1, #1
 8002ad2:	4807      	ldr	r0, [pc, #28]	; (8002af0 <readWriteSPI2+0x44>)
 8002ad4:	f7fe fb78 	bl	80011c8 <SPI_I2S_GetFlagStatus>
 8002ad8:	4603      	mov	r3, r0
 8002ada:	2b01      	cmp	r3, #1
 8002adc:	d1f8      	bne.n	8002ad0 <readWriteSPI2+0x24>
	// read the rx buff to clear the RXNE flag (garbage)
	rxData = SPI1->DR;
 8002ade:	4b04      	ldr	r3, [pc, #16]	; (8002af0 <readWriteSPI2+0x44>)
 8002ae0:	899b      	ldrh	r3, [r3, #12]
 8002ae2:	b29b      	uxth	r3, r3
 8002ae4:	73fb      	strb	r3, [r7, #15]

	return rxData;
 8002ae6:	7bfb      	ldrb	r3, [r7, #15]
}
 8002ae8:	4618      	mov	r0, r3
 8002aea:	3710      	adds	r7, #16
 8002aec:	46bd      	mov	sp, r7
 8002aee:	bd80      	pop	{r7, pc}
 8002af0:	40013000 	.word	0x40013000

08002af4 <initCS_Pin>:

void initCS_Pin(void)
{
 8002af4:	b580      	push	{r7, lr}
 8002af6:	b082      	sub	sp, #8
 8002af8:	af00      	add	r7, sp, #0
	GPIO_InitTypeDef GPIO_InitStructure;
	RCC_AHBPeriphClockCmd(RCC_AHBPeriph_GPIOB, ENABLE);
 8002afa:	2101      	movs	r1, #1
 8002afc:	2002      	movs	r0, #2
 8002afe:	f7fe fa87 	bl	8001010 <RCC_AHBPeriphClockCmd>

	GPIO_InitStructure.GPIO_OType = GPIO_OType_PP;
 8002b02:	2300      	movs	r3, #0
 8002b04:	71bb      	strb	r3, [r7, #6]
	GPIO_InitStructure.GPIO_Speed = GPIO_Speed_40MHz;
 8002b06:	2303      	movs	r3, #3
 8002b08:	717b      	strb	r3, [r7, #5]
	GPIO_InitStructure.GPIO_PuPd = GPIO_PuPd_NOPULL;
 8002b0a:	2300      	movs	r3, #0
 8002b0c:	71fb      	strb	r3, [r7, #7]
	GPIO_InitStructure.GPIO_Pin = GPIO_Pin_10;
 8002b0e:	f44f 6380 	mov.w	r3, #1024	; 0x400
 8002b12:	603b      	str	r3, [r7, #0]
	GPIO_InitStructure.GPIO_Mode = GPIO_Mode_OUT;
 8002b14:	2301      	movs	r3, #1
 8002b16:	713b      	strb	r3, [r7, #4]
	GPIO_Init(GPIOB, &GPIO_InitStructure);
 8002b18:	463b      	mov	r3, r7
 8002b1a:	4619      	mov	r1, r3
 8002b1c:	4803      	ldr	r0, [pc, #12]	; (8002b2c <initCS_Pin+0x38>)
 8002b1e:	f7fd fea9 	bl	8000874 <GPIO_Init>
}
 8002b22:	bf00      	nop
 8002b24:	3708      	adds	r7, #8
 8002b26:	46bd      	mov	sp, r7
 8002b28:	bd80      	pop	{r7, pc}
 8002b2a:	bf00      	nop
 8002b2c:	40020400 	.word	0x40020400

08002b30 <initCD_Pin>:

void initCD_Pin(void)
{
 8002b30:	b580      	push	{r7, lr}
 8002b32:	b082      	sub	sp, #8
 8002b34:	af00      	add	r7, sp, #0
	GPIO_InitTypeDef GPIO_InitStructure;
	RCC_AHBPeriphClockCmd(RCC_AHBPeriph_GPIOA, ENABLE);
 8002b36:	2101      	movs	r1, #1
 8002b38:	2001      	movs	r0, #1
 8002b3a:	f7fe fa69 	bl	8001010 <RCC_AHBPeriphClockCmd>

	GPIO_InitStructure.GPIO_OType = GPIO_OType_PP;
 8002b3e:	2300      	movs	r3, #0
 8002b40:	71bb      	strb	r3, [r7, #6]
	GPIO_InitStructure.GPIO_Speed = GPIO_Speed_40MHz;
 8002b42:	2303      	movs	r3, #3
 8002b44:	717b      	strb	r3, [r7, #5]
	GPIO_InitStructure.GPIO_PuPd = GPIO_PuPd_NOPULL;
 8002b46:	2300      	movs	r3, #0
 8002b48:	71fb      	strb	r3, [r7, #7]
	GPIO_InitStructure.GPIO_Pin = GPIO_Pin_8;
 8002b4a:	f44f 7380 	mov.w	r3, #256	; 0x100
 8002b4e:	603b      	str	r3, [r7, #0]
	GPIO_InitStructure.GPIO_Mode = GPIO_Mode_OUT;
 8002b50:	2301      	movs	r3, #1
 8002b52:	713b      	strb	r3, [r7, #4]
	GPIO_Init(GPIOA, &GPIO_InitStructure);
 8002b54:	463b      	mov	r3, r7
 8002b56:	4619      	mov	r1, r3
 8002b58:	4803      	ldr	r0, [pc, #12]	; (8002b68 <initCD_Pin+0x38>)
 8002b5a:	f7fd fe8b 	bl	8000874 <GPIO_Init>
}
 8002b5e:	bf00      	nop
 8002b60:	3708      	adds	r7, #8
 8002b62:	46bd      	mov	sp, r7
 8002b64:	bd80      	pop	{r7, pc}
 8002b66:	bf00      	nop
 8002b68:	40020000 	.word	0x40020000

08002b6c <cd_set>:

void cd_set(void)
{
 8002b6c:	b480      	push	{r7}
 8002b6e:	af00      	add	r7, sp, #0
	GPIOA->BSRRL = GPIO_Pin_8;
 8002b70:	4b03      	ldr	r3, [pc, #12]	; (8002b80 <cd_set+0x14>)
 8002b72:	f44f 7280 	mov.w	r2, #256	; 0x100
 8002b76:	831a      	strh	r2, [r3, #24]
}
 8002b78:	bf00      	nop
 8002b7a:	46bd      	mov	sp, r7
 8002b7c:	bc80      	pop	{r7}
 8002b7e:	4770      	bx	lr
 8002b80:	40020000 	.word	0x40020000

08002b84 <cd_reset>:

void cd_reset(void)
{
 8002b84:	b480      	push	{r7}
 8002b86:	af00      	add	r7, sp, #0
	GPIOA->BSRRH = GPIO_Pin_8;
 8002b88:	4b03      	ldr	r3, [pc, #12]	; (8002b98 <cd_reset+0x14>)
 8002b8a:	f44f 7280 	mov.w	r2, #256	; 0x100
 8002b8e:	835a      	strh	r2, [r3, #26]
}
 8002b90:	bf00      	nop
 8002b92:	46bd      	mov	sp, r7
 8002b94:	bc80      	pop	{r7}
 8002b96:	4770      	bx	lr
 8002b98:	40020000 	.word	0x40020000

08002b9c <initRES_Pin>:

void initRES_Pin(void)
{
 8002b9c:	b580      	push	{r7, lr}
 8002b9e:	b082      	sub	sp, #8
 8002ba0:	af00      	add	r7, sp, #0
	GPIO_InitTypeDef GPIO_InitStructure;
	RCC_AHBPeriphClockCmd(RCC_AHBPeriph_GPIOA, ENABLE);
 8002ba2:	2101      	movs	r1, #1
 8002ba4:	2001      	movs	r0, #1
 8002ba6:	f7fe fa33 	bl	8001010 <RCC_AHBPeriphClockCmd>

	GPIO_InitStructure.GPIO_OType = GPIO_OType_PP;
 8002baa:	2300      	movs	r3, #0
 8002bac:	71bb      	strb	r3, [r7, #6]
	GPIO_InitStructure.GPIO_Speed = GPIO_Speed_40MHz;
 8002bae:	2303      	movs	r3, #3
 8002bb0:	717b      	strb	r3, [r7, #5]
	GPIO_InitStructure.GPIO_PuPd = GPIO_PuPd_NOPULL;
 8002bb2:	2300      	movs	r3, #0
 8002bb4:	71fb      	strb	r3, [r7, #7]
	GPIO_InitStructure.GPIO_Pin = GPIO_Pin_9;
 8002bb6:	f44f 7300 	mov.w	r3, #512	; 0x200
 8002bba:	603b      	str	r3, [r7, #0]
	GPIO_InitStructure.GPIO_Mode = GPIO_Mode_OUT;
 8002bbc:	2301      	movs	r3, #1
 8002bbe:	713b      	strb	r3, [r7, #4]
	GPIO_Init(GPIOA, &GPIO_InitStructure);
 8002bc0:	463b      	mov	r3, r7
 8002bc2:	4619      	mov	r1, r3
 8002bc4:	4803      	ldr	r0, [pc, #12]	; (8002bd4 <initRES_Pin+0x38>)
 8002bc6:	f7fd fe55 	bl	8000874 <GPIO_Init>
}
 8002bca:	bf00      	nop
 8002bcc:	3708      	adds	r7, #8
 8002bce:	46bd      	mov	sp, r7
 8002bd0:	bd80      	pop	{r7, pc}
 8002bd2:	bf00      	nop
 8002bd4:	40020000 	.word	0x40020000

08002bd8 <res_set>:

void res_set(void)
{
 8002bd8:	b480      	push	{r7}
 8002bda:	af00      	add	r7, sp, #0
	GPIOA->BSRRL = GPIO_Pin_9;
 8002bdc:	4b03      	ldr	r3, [pc, #12]	; (8002bec <res_set+0x14>)
 8002bde:	f44f 7200 	mov.w	r2, #512	; 0x200
 8002be2:	831a      	strh	r2, [r3, #24]
}
 8002be4:	bf00      	nop
 8002be6:	46bd      	mov	sp, r7
 8002be8:	bc80      	pop	{r7}
 8002bea:	4770      	bx	lr
 8002bec:	40020000 	.word	0x40020000

08002bf0 <res_reset>:

void res_reset(void)
{
 8002bf0:	b480      	push	{r7}
 8002bf2:	af00      	add	r7, sp, #0
	GPIOA->BSRRH = GPIO_Pin_9;
 8002bf4:	4b03      	ldr	r3, [pc, #12]	; (8002c04 <res_reset+0x14>)
 8002bf6:	f44f 7200 	mov.w	r2, #512	; 0x200
 8002bfa:	835a      	strh	r2, [r3, #26]
}
 8002bfc:	bf00      	nop
 8002bfe:	46bd      	mov	sp, r7
 8002c00:	bc80      	pop	{r7}
 8002c02:	4770      	bx	lr
 8002c04:	40020000 	.word	0x40020000

08002c08 <Delay>:
				Write_Data(*(n+16*k+i));
				}
}

void Delay(uint16_t n)
{
 8002c08:	b480      	push	{r7}
 8002c0a:	b085      	sub	sp, #20
 8002c0c:	af00      	add	r7, sp, #0
 8002c0e:	4603      	mov	r3, r0
 8002c10:	80fb      	strh	r3, [r7, #6]
	uint32_t nl = n*2;
 8002c12:	88fb      	ldrh	r3, [r7, #6]
 8002c14:	005b      	lsls	r3, r3, #1
 8002c16:	60fb      	str	r3, [r7, #12]
	while(nl--);
 8002c18:	bf00      	nop
 8002c1a:	68fb      	ldr	r3, [r7, #12]
 8002c1c:	1e5a      	subs	r2, r3, #1
 8002c1e:	60fa      	str	r2, [r7, #12]
 8002c20:	2b00      	cmp	r3, #0
 8002c22:	d1fa      	bne.n	8002c1a <Delay+0x12>


	return;
 8002c24:	bf00      	nop
}
 8002c26:	3714      	adds	r7, #20
 8002c28:	46bd      	mov	sp, r7
 8002c2a:	bc80      	pop	{r7}
 8002c2c:	4770      	bx	lr
 8002c2e:	bf00      	nop

08002c30 <Reset_Handler>:

  .section .text.Reset_Handler
  .weak Reset_Handler
  .type Reset_Handler, %function
Reset_Handler:
  ldr   sp, =_estack    /* Atollic update: set stack pointer */
 8002c30:	f8df d034 	ldr.w	sp, [pc, #52]	; 8002c68 <LoopFillZerobss+0x14>

/* Copy the data segment initializers from flash to SRAM */
  movs r1, #0
 8002c34:	2100      	movs	r1, #0
  b LoopCopyDataInit
 8002c36:	e003      	b.n	8002c40 <LoopCopyDataInit>

08002c38 <CopyDataInit>:

CopyDataInit:
  ldr r3, =_sidata
 8002c38:	4b0c      	ldr	r3, [pc, #48]	; (8002c6c <LoopFillZerobss+0x18>)
  ldr r3, [r3, r1]
 8002c3a:	585b      	ldr	r3, [r3, r1]
  str r3, [r0, r1]
 8002c3c:	5043      	str	r3, [r0, r1]
  adds r1, r1, #4
 8002c3e:	3104      	adds	r1, #4

08002c40 <LoopCopyDataInit>:

LoopCopyDataInit:
  ldr r0, =_sdata
 8002c40:	480b      	ldr	r0, [pc, #44]	; (8002c70 <LoopFillZerobss+0x1c>)
  ldr r3, =_edata
 8002c42:	4b0c      	ldr	r3, [pc, #48]	; (8002c74 <LoopFillZerobss+0x20>)
  adds r2, r0, r1
 8002c44:	1842      	adds	r2, r0, r1
  cmp r2, r3
 8002c46:	429a      	cmp	r2, r3
  bcc CopyDataInit
 8002c48:	d3f6      	bcc.n	8002c38 <CopyDataInit>
  ldr r2, =_sbss
 8002c4a:	4a0b      	ldr	r2, [pc, #44]	; (8002c78 <LoopFillZerobss+0x24>)
  b LoopFillZerobss
 8002c4c:	e002      	b.n	8002c54 <LoopFillZerobss>

08002c4e <FillZerobss>:
/* Zero fill the bss segment. */
FillZerobss:
  movs r3, #0
 8002c4e:	2300      	movs	r3, #0
  str r3, [r2], #4
 8002c50:	f842 3b04 	str.w	r3, [r2], #4

08002c54 <LoopFillZerobss>:

LoopFillZerobss:
  ldr r3, = _ebss
 8002c54:	4b09      	ldr	r3, [pc, #36]	; (8002c7c <LoopFillZerobss+0x28>)
  cmp r2, r3
 8002c56:	429a      	cmp	r2, r3
  bcc FillZerobss
 8002c58:	d3f9      	bcc.n	8002c4e <FillZerobss>

/* Call the clock system intitialization function.*/
    bl  SystemInit
 8002c5a:	f000 f841 	bl	8002ce0 <SystemInit>
/* Call static constructors */
    bl __libc_init_array
 8002c5e:	f000 f9f9 	bl	8003054 <__libc_init_array>
/* Call the application's entry point.*/
  bl main
 8002c62:	f7ff fc8b 	bl	800257c <main>
  bx lr
 8002c66:	4770      	bx	lr

  .section .text.Reset_Handler
  .weak Reset_Handler
  .type Reset_Handler, %function
Reset_Handler:
  ldr   sp, =_estack    /* Atollic update: set stack pointer */
 8002c68:	20014000 	.word	0x20014000
/* Copy the data segment initializers from flash to SRAM */
  movs r1, #0
  b LoopCopyDataInit

CopyDataInit:
  ldr r3, =_sidata
 8002c6c:	0800374c 	.word	0x0800374c
  ldr r3, [r3, r1]
  str r3, [r0, r1]
  adds r1, r1, #4

LoopCopyDataInit:
  ldr r0, =_sdata
 8002c70:	20000000 	.word	0x20000000
  ldr r3, =_edata
 8002c74:	20000020 	.word	0x20000020
  adds r2, r0, r1
  cmp r2, r3
  bcc CopyDataInit
  ldr r2, =_sbss
 8002c78:	20000020 	.word	0x20000020
FillZerobss:
  movs r3, #0
  str r3, [r2], #4

LoopFillZerobss:
  ldr r3, = _ebss
 8002c7c:	20000094 	.word	0x20000094

08002c80 <ADC1_IRQHandler>:
 * @retval : None
*/
    .section .text.Default_Handler,"ax",%progbits
Default_Handler:
Infinite_Loop:
  b Infinite_Loop
 8002c80:	e7fe      	b.n	8002c80 <ADC1_IRQHandler>
	...

08002c84 <NMI_Handler>:
  * @brief  This function handles NMI exception.
  * @param  None
  * @retval None
  */
void NMI_Handler(void)
{
 8002c84:	b480      	push	{r7}
 8002c86:	af00      	add	r7, sp, #0
}
 8002c88:	bf00      	nop
 8002c8a:	46bd      	mov	sp, r7
 8002c8c:	bc80      	pop	{r7}
 8002c8e:	4770      	bx	lr

08002c90 <HardFault_Handler>:
  * @brief  This function handles Hard Fault exception.
  * @param  None
  * @retval None
  */
void HardFault_Handler(void)
{
 8002c90:	b480      	push	{r7}
 8002c92:	af00      	add	r7, sp, #0
  /* Go to infinite loop when Hard Fault exception occurs */
  while (1)
  {
  }
 8002c94:	e7fe      	b.n	8002c94 <HardFault_Handler+0x4>
 8002c96:	bf00      	nop

08002c98 <MemManage_Handler>:
  * @brief  This function handles Memory Manage exception.
  * @param  None
  * @retval None
  */
void MemManage_Handler(void)
{
 8002c98:	b480      	push	{r7}
 8002c9a:	af00      	add	r7, sp, #0
  /* Go to infinite loop when Memory Manage exception occurs */
  while (1)
  {
  }
 8002c9c:	e7fe      	b.n	8002c9c <MemManage_Handler+0x4>
 8002c9e:	bf00      	nop

08002ca0 <BusFault_Handler>:
  * @brief  This function handles Bus Fault exception.
  * @param  None
  * @retval None
  */
void BusFault_Handler(void)
{
 8002ca0:	b480      	push	{r7}
 8002ca2:	af00      	add	r7, sp, #0
  /* Go to infinite loop when Bus Fault exception occurs */
  while (1)
  {
  }
 8002ca4:	e7fe      	b.n	8002ca4 <BusFault_Handler+0x4>
 8002ca6:	bf00      	nop

08002ca8 <UsageFault_Handler>:
  * @brief  This function handles Usage Fault exception.
  * @param  None
  * @retval None
  */
void UsageFault_Handler(void)
{
 8002ca8:	b480      	push	{r7}
 8002caa:	af00      	add	r7, sp, #0
  /* Go to infinite loop when Usage Fault exception occurs */
  while (1)
  {
  }
 8002cac:	e7fe      	b.n	8002cac <UsageFault_Handler+0x4>
 8002cae:	bf00      	nop

08002cb0 <SVC_Handler>:
  * @brief  This function handles SVCall exception.
  * @param  None
  * @retval None
  */
void SVC_Handler(void)
{
 8002cb0:	b480      	push	{r7}
 8002cb2:	af00      	add	r7, sp, #0
}
 8002cb4:	bf00      	nop
 8002cb6:	46bd      	mov	sp, r7
 8002cb8:	bc80      	pop	{r7}
 8002cba:	4770      	bx	lr

08002cbc <DebugMon_Handler>:
  * @brief  This function handles Debug Monitor exception.
  * @param  None
  * @retval None
  */
void DebugMon_Handler(void)
{
 8002cbc:	b480      	push	{r7}
 8002cbe:	af00      	add	r7, sp, #0
}
 8002cc0:	bf00      	nop
 8002cc2:	46bd      	mov	sp, r7
 8002cc4:	bc80      	pop	{r7}
 8002cc6:	4770      	bx	lr

08002cc8 <PendSV_Handler>:
  * @brief  This function handles PendSVC exception.
  * @param  None
  * @retval None
  */
void PendSV_Handler(void)
{
 8002cc8:	b480      	push	{r7}
 8002cca:	af00      	add	r7, sp, #0
}
 8002ccc:	bf00      	nop
 8002cce:	46bd      	mov	sp, r7
 8002cd0:	bc80      	pop	{r7}
 8002cd2:	4770      	bx	lr

08002cd4 <SysTick_Handler>:
  * @brief  This function handles SysTick Handler.
  * @param  None
  * @retval None
  */
void SysTick_Handler(void)
{
 8002cd4:	b480      	push	{r7}
 8002cd6:	af00      	add	r7, sp, #0
	/*  TimingDelay_Decrement(); */
#ifdef USE_STM32L_DISCOVERY
  TimingDelay_Decrement();
#endif
}
 8002cd8:	bf00      	nop
 8002cda:	46bd      	mov	sp, r7
 8002cdc:	bc80      	pop	{r7}
 8002cde:	4770      	bx	lr

08002ce0 <SystemInit>:
  *         SystemCoreClock variable.
  * @param  None
  * @retval None
  */
void SystemInit (void)
{
 8002ce0:	b580      	push	{r7, lr}
 8002ce2:	af00      	add	r7, sp, #0
  /*!< Set MSION bit */
  RCC->CR |= (uint32_t)0x00000100;
 8002ce4:	4a15      	ldr	r2, [pc, #84]	; (8002d3c <SystemInit+0x5c>)
 8002ce6:	4b15      	ldr	r3, [pc, #84]	; (8002d3c <SystemInit+0x5c>)
 8002ce8:	681b      	ldr	r3, [r3, #0]
 8002cea:	f443 7380 	orr.w	r3, r3, #256	; 0x100
 8002cee:	6013      	str	r3, [r2, #0]

  /*!< Reset SW[1:0], HPRE[3:0], PPRE1[2:0], PPRE2[2:0], MCOSEL[2:0] and MCOPRE[2:0] bits */
  RCC->CFGR &= (uint32_t)0x88FFC00C;
 8002cf0:	4912      	ldr	r1, [pc, #72]	; (8002d3c <SystemInit+0x5c>)
 8002cf2:	4b12      	ldr	r3, [pc, #72]	; (8002d3c <SystemInit+0x5c>)
 8002cf4:	689a      	ldr	r2, [r3, #8]
 8002cf6:	4b12      	ldr	r3, [pc, #72]	; (8002d40 <SystemInit+0x60>)
 8002cf8:	4013      	ands	r3, r2
 8002cfa:	608b      	str	r3, [r1, #8]
  
  /*!< Reset HSION, HSEON, CSSON and PLLON bits */
  RCC->CR &= (uint32_t)0xEEFEFFFE;
 8002cfc:	4a0f      	ldr	r2, [pc, #60]	; (8002d3c <SystemInit+0x5c>)
 8002cfe:	4b0f      	ldr	r3, [pc, #60]	; (8002d3c <SystemInit+0x5c>)
 8002d00:	681b      	ldr	r3, [r3, #0]
 8002d02:	f023 5388 	bic.w	r3, r3, #285212672	; 0x11000000
 8002d06:	f023 1301 	bic.w	r3, r3, #65537	; 0x10001
 8002d0a:	6013      	str	r3, [r2, #0]

  /*!< Reset HSEBYP bit */
  RCC->CR &= (uint32_t)0xFFFBFFFF;
 8002d0c:	4a0b      	ldr	r2, [pc, #44]	; (8002d3c <SystemInit+0x5c>)
 8002d0e:	4b0b      	ldr	r3, [pc, #44]	; (8002d3c <SystemInit+0x5c>)
 8002d10:	681b      	ldr	r3, [r3, #0]
 8002d12:	f423 2380 	bic.w	r3, r3, #262144	; 0x40000
 8002d16:	6013      	str	r3, [r2, #0]

  /*!< Reset PLLSRC, PLLMUL[3:0] and PLLDIV[1:0] bits */
  RCC->CFGR &= (uint32_t)0xFF02FFFF;
 8002d18:	4a08      	ldr	r2, [pc, #32]	; (8002d3c <SystemInit+0x5c>)
 8002d1a:	4b08      	ldr	r3, [pc, #32]	; (8002d3c <SystemInit+0x5c>)
 8002d1c:	689b      	ldr	r3, [r3, #8]
 8002d1e:	f423 037d 	bic.w	r3, r3, #16580608	; 0xfd0000
 8002d22:	6093      	str	r3, [r2, #8]

  /*!< Disable all interrupts */
  RCC->CIR = 0x00000000;
 8002d24:	4b05      	ldr	r3, [pc, #20]	; (8002d3c <SystemInit+0x5c>)
 8002d26:	2200      	movs	r2, #0
 8002d28:	60da      	str	r2, [r3, #12]
#ifdef DATA_IN_ExtSRAM
  SystemInit_ExtMemCtl(); 
#endif /* DATA_IN_ExtSRAM */
    
  /* Configure the System clock frequency, AHB/APBx prescalers and Flash settings */
  SetSysClock();
 8002d2a:	f000 f80d 	bl	8002d48 <SetSysClock>

#ifdef VECT_TAB_SRAM
  SCB->VTOR = SRAM_BASE | VECT_TAB_OFFSET; /* Vector Table Relocation in Internal SRAM. */
#else
  SCB->VTOR = FLASH_BASE | VECT_TAB_OFFSET; /* Vector Table Relocation in Internal FLASH. */
 8002d2e:	4b05      	ldr	r3, [pc, #20]	; (8002d44 <SystemInit+0x64>)
 8002d30:	f04f 6200 	mov.w	r2, #134217728	; 0x8000000
 8002d34:	609a      	str	r2, [r3, #8]
#endif
}
 8002d36:	bf00      	nop
 8002d38:	bd80      	pop	{r7, pc}
 8002d3a:	bf00      	nop
 8002d3c:	40023800 	.word	0x40023800
 8002d40:	88ffc00c 	.word	0x88ffc00c
 8002d44:	e000ed00 	.word	0xe000ed00

08002d48 <SetSysClock>:
  *         is reset to the default reset state (done in SystemInit() function).
  * @param  None
  * @retval None
  */
static void SetSysClock(void)
{
 8002d48:	b480      	push	{r7}
 8002d4a:	b083      	sub	sp, #12
 8002d4c:	af00      	add	r7, sp, #0
  __IO uint32_t StartUpCounter = 0, HSEStatus = 0;
 8002d4e:	2300      	movs	r3, #0
 8002d50:	607b      	str	r3, [r7, #4]
 8002d52:	2300      	movs	r3, #0
 8002d54:	603b      	str	r3, [r7, #0]
  
  /* SYSCLK, HCLK, PCLK2 and PCLK1 configuration ---------------------------*/
  /* Enable HSE */
  RCC->CR |= ((uint32_t)RCC_CR_HSEON);
 8002d56:	4a41      	ldr	r2, [pc, #260]	; (8002e5c <SetSysClock+0x114>)
 8002d58:	4b40      	ldr	r3, [pc, #256]	; (8002e5c <SetSysClock+0x114>)
 8002d5a:	681b      	ldr	r3, [r3, #0]
 8002d5c:	f443 3380 	orr.w	r3, r3, #65536	; 0x10000
 8002d60:	6013      	str	r3, [r2, #0]
 
  /* Wait till HSE is ready and if Time out is reached exit */
  do
  {
    HSEStatus = RCC->CR & RCC_CR_HSERDY;
 8002d62:	4b3e      	ldr	r3, [pc, #248]	; (8002e5c <SetSysClock+0x114>)
 8002d64:	681b      	ldr	r3, [r3, #0]
 8002d66:	f403 3300 	and.w	r3, r3, #131072	; 0x20000
 8002d6a:	603b      	str	r3, [r7, #0]
    StartUpCounter++;
 8002d6c:	687b      	ldr	r3, [r7, #4]
 8002d6e:	3301      	adds	r3, #1
 8002d70:	607b      	str	r3, [r7, #4]
  } while((HSEStatus == 0) && (StartUpCounter != HSE_STARTUP_TIMEOUT));
 8002d72:	683b      	ldr	r3, [r7, #0]
 8002d74:	2b00      	cmp	r3, #0
 8002d76:	d103      	bne.n	8002d80 <SetSysClock+0x38>
 8002d78:	687b      	ldr	r3, [r7, #4]
 8002d7a:	f5b3 6fa0 	cmp.w	r3, #1280	; 0x500
 8002d7e:	d1f0      	bne.n	8002d62 <SetSysClock+0x1a>

  if ((RCC->CR & RCC_CR_HSERDY) != RESET)
 8002d80:	4b36      	ldr	r3, [pc, #216]	; (8002e5c <SetSysClock+0x114>)
 8002d82:	681b      	ldr	r3, [r3, #0]
 8002d84:	f403 3300 	and.w	r3, r3, #131072	; 0x20000
 8002d88:	2b00      	cmp	r3, #0
 8002d8a:	d002      	beq.n	8002d92 <SetSysClock+0x4a>
  {
    HSEStatus = (uint32_t)0x01;
 8002d8c:	2301      	movs	r3, #1
 8002d8e:	603b      	str	r3, [r7, #0]
 8002d90:	e001      	b.n	8002d96 <SetSysClock+0x4e>
  }
  else
  {
    HSEStatus = (uint32_t)0x00;
 8002d92:	2300      	movs	r3, #0
 8002d94:	603b      	str	r3, [r7, #0]
  }
  
  if (HSEStatus == (uint32_t)0x01)
 8002d96:	683b      	ldr	r3, [r7, #0]
 8002d98:	2b01      	cmp	r3, #1
 8002d9a:	d15a      	bne.n	8002e52 <SetSysClock+0x10a>
  {
    /* Enable 64-bit access */
    FLASH->ACR |= FLASH_ACR_ACC64;
 8002d9c:	4a30      	ldr	r2, [pc, #192]	; (8002e60 <SetSysClock+0x118>)
 8002d9e:	4b30      	ldr	r3, [pc, #192]	; (8002e60 <SetSysClock+0x118>)
 8002da0:	681b      	ldr	r3, [r3, #0]
 8002da2:	f043 0304 	orr.w	r3, r3, #4
 8002da6:	6013      	str	r3, [r2, #0]
    
    /* Enable Prefetch Buffer */
    FLASH->ACR |= FLASH_ACR_PRFTEN;
 8002da8:	4a2d      	ldr	r2, [pc, #180]	; (8002e60 <SetSysClock+0x118>)
 8002daa:	4b2d      	ldr	r3, [pc, #180]	; (8002e60 <SetSysClock+0x118>)
 8002dac:	681b      	ldr	r3, [r3, #0]
 8002dae:	f043 0302 	orr.w	r3, r3, #2
 8002db2:	6013      	str	r3, [r2, #0]

    /* Flash 1 wait state */
    FLASH->ACR |= FLASH_ACR_LATENCY;
 8002db4:	4a2a      	ldr	r2, [pc, #168]	; (8002e60 <SetSysClock+0x118>)
 8002db6:	4b2a      	ldr	r3, [pc, #168]	; (8002e60 <SetSysClock+0x118>)
 8002db8:	681b      	ldr	r3, [r3, #0]
 8002dba:	f043 0301 	orr.w	r3, r3, #1
 8002dbe:	6013      	str	r3, [r2, #0]
    
    /* Power enable */
    RCC->APB1ENR |= RCC_APB1ENR_PWREN;
 8002dc0:	4a26      	ldr	r2, [pc, #152]	; (8002e5c <SetSysClock+0x114>)
 8002dc2:	4b26      	ldr	r3, [pc, #152]	; (8002e5c <SetSysClock+0x114>)
 8002dc4:	6a5b      	ldr	r3, [r3, #36]	; 0x24
 8002dc6:	f043 5380 	orr.w	r3, r3, #268435456	; 0x10000000
 8002dca:	6253      	str	r3, [r2, #36]	; 0x24
  
    /* Select the Voltage Range 1 (1.8 V) */
    PWR->CR = PWR_CR_VOS_0;
 8002dcc:	4b25      	ldr	r3, [pc, #148]	; (8002e64 <SetSysClock+0x11c>)
 8002dce:	f44f 6200 	mov.w	r2, #2048	; 0x800
 8002dd2:	601a      	str	r2, [r3, #0]
  
    /* Wait Until the Voltage Regulator is ready */
    while((PWR->CSR & PWR_CSR_VOSF) != RESET)
 8002dd4:	bf00      	nop
 8002dd6:	4b23      	ldr	r3, [pc, #140]	; (8002e64 <SetSysClock+0x11c>)
 8002dd8:	685b      	ldr	r3, [r3, #4]
 8002dda:	f003 0310 	and.w	r3, r3, #16
 8002dde:	2b00      	cmp	r3, #0
 8002de0:	d1f9      	bne.n	8002dd6 <SetSysClock+0x8e>
    {
    }
        
    /* HCLK = SYSCLK /1*/
    RCC->CFGR |= (uint32_t)RCC_CFGR_HPRE_DIV1;
 8002de2:	4a1e      	ldr	r2, [pc, #120]	; (8002e5c <SetSysClock+0x114>)
 8002de4:	4b1d      	ldr	r3, [pc, #116]	; (8002e5c <SetSysClock+0x114>)
 8002de6:	689b      	ldr	r3, [r3, #8]
 8002de8:	6093      	str	r3, [r2, #8]
  
    /* PCLK2 = HCLK /1*/
    RCC->CFGR |= (uint32_t)RCC_CFGR_PPRE2_DIV1;
 8002dea:	4a1c      	ldr	r2, [pc, #112]	; (8002e5c <SetSysClock+0x114>)
 8002dec:	4b1b      	ldr	r3, [pc, #108]	; (8002e5c <SetSysClock+0x114>)
 8002dee:	689b      	ldr	r3, [r3, #8]
 8002df0:	6093      	str	r3, [r2, #8]
    
    /* PCLK1 = HCLK /1*/
    RCC->CFGR |= (uint32_t)RCC_CFGR_PPRE1_DIV1;
 8002df2:	4a1a      	ldr	r2, [pc, #104]	; (8002e5c <SetSysClock+0x114>)
 8002df4:	4b19      	ldr	r3, [pc, #100]	; (8002e5c <SetSysClock+0x114>)
 8002df6:	689b      	ldr	r3, [r3, #8]
 8002df8:	6093      	str	r3, [r2, #8]
    
    /*  PLL configuration */
    RCC->CFGR &= (uint32_t)((uint32_t)~(RCC_CFGR_PLLSRC | RCC_CFGR_PLLMUL |
 8002dfa:	4a18      	ldr	r2, [pc, #96]	; (8002e5c <SetSysClock+0x114>)
 8002dfc:	4b17      	ldr	r3, [pc, #92]	; (8002e5c <SetSysClock+0x114>)
 8002dfe:	689b      	ldr	r3, [r3, #8]
 8002e00:	f423 037d 	bic.w	r3, r3, #16580608	; 0xfd0000
 8002e04:	6093      	str	r3, [r2, #8]
                                        RCC_CFGR_PLLDIV));
    RCC->CFGR |= (uint32_t)(RCC_CFGR_PLLSRC_HSE | RCC_CFGR_PLLMUL12 | RCC_CFGR_PLLDIV3);
 8002e06:	4a15      	ldr	r2, [pc, #84]	; (8002e5c <SetSysClock+0x114>)
 8002e08:	4b14      	ldr	r3, [pc, #80]	; (8002e5c <SetSysClock+0x114>)
 8002e0a:	689b      	ldr	r3, [r3, #8]
 8002e0c:	f443 0311 	orr.w	r3, r3, #9502720	; 0x910000
 8002e10:	6093      	str	r3, [r2, #8]

    /* Enable PLL */
    RCC->CR |= RCC_CR_PLLON;
 8002e12:	4a12      	ldr	r2, [pc, #72]	; (8002e5c <SetSysClock+0x114>)
 8002e14:	4b11      	ldr	r3, [pc, #68]	; (8002e5c <SetSysClock+0x114>)
 8002e16:	681b      	ldr	r3, [r3, #0]
 8002e18:	f043 7380 	orr.w	r3, r3, #16777216	; 0x1000000
 8002e1c:	6013      	str	r3, [r2, #0]

    /* Wait till PLL is ready */
    while((RCC->CR & RCC_CR_PLLRDY) == 0)
 8002e1e:	bf00      	nop
 8002e20:	4b0e      	ldr	r3, [pc, #56]	; (8002e5c <SetSysClock+0x114>)
 8002e22:	681b      	ldr	r3, [r3, #0]
 8002e24:	f003 7300 	and.w	r3, r3, #33554432	; 0x2000000
 8002e28:	2b00      	cmp	r3, #0
 8002e2a:	d0f9      	beq.n	8002e20 <SetSysClock+0xd8>
    {
    }
        
    /* Select PLL as system clock source */
    RCC->CFGR &= (uint32_t)((uint32_t)~(RCC_CFGR_SW));
 8002e2c:	4a0b      	ldr	r2, [pc, #44]	; (8002e5c <SetSysClock+0x114>)
 8002e2e:	4b0b      	ldr	r3, [pc, #44]	; (8002e5c <SetSysClock+0x114>)
 8002e30:	689b      	ldr	r3, [r3, #8]
 8002e32:	f023 0303 	bic.w	r3, r3, #3
 8002e36:	6093      	str	r3, [r2, #8]
    RCC->CFGR |= (uint32_t)RCC_CFGR_SW_PLL;
 8002e38:	4a08      	ldr	r2, [pc, #32]	; (8002e5c <SetSysClock+0x114>)
 8002e3a:	4b08      	ldr	r3, [pc, #32]	; (8002e5c <SetSysClock+0x114>)
 8002e3c:	689b      	ldr	r3, [r3, #8]
 8002e3e:	f043 0303 	orr.w	r3, r3, #3
 8002e42:	6093      	str	r3, [r2, #8]

    /* Wait till PLL is used as system clock source */
    while ((RCC->CFGR & (uint32_t)RCC_CFGR_SWS) != (uint32_t)RCC_CFGR_SWS_PLL)
 8002e44:	bf00      	nop
 8002e46:	4b05      	ldr	r3, [pc, #20]	; (8002e5c <SetSysClock+0x114>)
 8002e48:	689b      	ldr	r3, [r3, #8]
 8002e4a:	f003 030c 	and.w	r3, r3, #12
 8002e4e:	2b0c      	cmp	r3, #12
 8002e50:	d1f9      	bne.n	8002e46 <SetSysClock+0xfe>
  else
  {
    /* If HSE fails to start-up, the application will have wrong clock
       configuration. User can add here some code to deal with this error */
  }
}
 8002e52:	bf00      	nop
 8002e54:	370c      	adds	r7, #12
 8002e56:	46bd      	mov	sp, r7
 8002e58:	bc80      	pop	{r7}
 8002e5a:	4770      	bx	lr
 8002e5c:	40023800 	.word	0x40023800
 8002e60:	40023c00 	.word	0x40023c00
 8002e64:	40007000 	.word	0x40007000

08002e68 <ts_itoa>:
**  Abstract: Convert integer to ascii
**  Returns:  void
**---------------------------------------------------------------------------
*/
void ts_itoa(char **buf, unsigned int d, int base)
{
 8002e68:	b480      	push	{r7}
 8002e6a:	b087      	sub	sp, #28
 8002e6c:	af00      	add	r7, sp, #0
 8002e6e:	60f8      	str	r0, [r7, #12]
 8002e70:	60b9      	str	r1, [r7, #8]
 8002e72:	607a      	str	r2, [r7, #4]
	int div = 1;
 8002e74:	2301      	movs	r3, #1
 8002e76:	617b      	str	r3, [r7, #20]
	while (d/div >= base)
 8002e78:	e004      	b.n	8002e84 <ts_itoa+0x1c>
		div *= base;
 8002e7a:	697b      	ldr	r3, [r7, #20]
 8002e7c:	687a      	ldr	r2, [r7, #4]
 8002e7e:	fb02 f303 	mul.w	r3, r2, r3
 8002e82:	617b      	str	r3, [r7, #20]
**---------------------------------------------------------------------------
*/
void ts_itoa(char **buf, unsigned int d, int base)
{
	int div = 1;
	while (d/div >= base)
 8002e84:	697b      	ldr	r3, [r7, #20]
 8002e86:	68ba      	ldr	r2, [r7, #8]
 8002e88:	fbb2 f2f3 	udiv	r2, r2, r3
 8002e8c:	687b      	ldr	r3, [r7, #4]
 8002e8e:	429a      	cmp	r2, r3
 8002e90:	d2f3      	bcs.n	8002e7a <ts_itoa+0x12>
		div *= base;

	while (div != 0)
 8002e92:	e029      	b.n	8002ee8 <ts_itoa+0x80>
	{
		int num = d/div;
 8002e94:	697b      	ldr	r3, [r7, #20]
 8002e96:	68ba      	ldr	r2, [r7, #8]
 8002e98:	fbb2 f3f3 	udiv	r3, r2, r3
 8002e9c:	613b      	str	r3, [r7, #16]
		d = d%div;
 8002e9e:	697a      	ldr	r2, [r7, #20]
 8002ea0:	68bb      	ldr	r3, [r7, #8]
 8002ea2:	fbb3 f1f2 	udiv	r1, r3, r2
 8002ea6:	fb02 f201 	mul.w	r2, r2, r1
 8002eaa:	1a9b      	subs	r3, r3, r2
 8002eac:	60bb      	str	r3, [r7, #8]
		div /= base;
 8002eae:	697a      	ldr	r2, [r7, #20]
 8002eb0:	687b      	ldr	r3, [r7, #4]
 8002eb2:	fb92 f3f3 	sdiv	r3, r2, r3
 8002eb6:	617b      	str	r3, [r7, #20]
		if (num > 9)
 8002eb8:	693b      	ldr	r3, [r7, #16]
 8002eba:	2b09      	cmp	r3, #9
 8002ebc:	dd0a      	ble.n	8002ed4 <ts_itoa+0x6c>
			*((*buf)++) = (num-10) + 'A';
 8002ebe:	68fb      	ldr	r3, [r7, #12]
 8002ec0:	681b      	ldr	r3, [r3, #0]
 8002ec2:	1c59      	adds	r1, r3, #1
 8002ec4:	68fa      	ldr	r2, [r7, #12]
 8002ec6:	6011      	str	r1, [r2, #0]
 8002ec8:	693a      	ldr	r2, [r7, #16]
 8002eca:	b2d2      	uxtb	r2, r2
 8002ecc:	3237      	adds	r2, #55	; 0x37
 8002ece:	b2d2      	uxtb	r2, r2
 8002ed0:	701a      	strb	r2, [r3, #0]
 8002ed2:	e009      	b.n	8002ee8 <ts_itoa+0x80>
		else
			*((*buf)++) = num + '0';
 8002ed4:	68fb      	ldr	r3, [r7, #12]
 8002ed6:	681b      	ldr	r3, [r3, #0]
 8002ed8:	1c59      	adds	r1, r3, #1
 8002eda:	68fa      	ldr	r2, [r7, #12]
 8002edc:	6011      	str	r1, [r2, #0]
 8002ede:	693a      	ldr	r2, [r7, #16]
 8002ee0:	b2d2      	uxtb	r2, r2
 8002ee2:	3230      	adds	r2, #48	; 0x30
 8002ee4:	b2d2      	uxtb	r2, r2
 8002ee6:	701a      	strb	r2, [r3, #0]
{
	int div = 1;
	while (d/div >= base)
		div *= base;

	while (div != 0)
 8002ee8:	697b      	ldr	r3, [r7, #20]
 8002eea:	2b00      	cmp	r3, #0
 8002eec:	d1d2      	bne.n	8002e94 <ts_itoa+0x2c>
		if (num > 9)
			*((*buf)++) = (num-10) + 'A';
		else
			*((*buf)++) = num + '0';
	}
}
 8002eee:	bf00      	nop
 8002ef0:	371c      	adds	r7, #28
 8002ef2:	46bd      	mov	sp, r7
 8002ef4:	bc80      	pop	{r7}
 8002ef6:	4770      	bx	lr

08002ef8 <ts_formatstring>:
**  Abstract: Writes arguments va to buffer buf according to format fmt
**  Returns:  Length of string
**---------------------------------------------------------------------------
*/
int ts_formatstring(char *buf, const char *fmt, va_list va)
{
 8002ef8:	b580      	push	{r7, lr}
 8002efa:	b088      	sub	sp, #32
 8002efc:	af00      	add	r7, sp, #0
 8002efe:	60f8      	str	r0, [r7, #12]
 8002f00:	60b9      	str	r1, [r7, #8]
 8002f02:	607a      	str	r2, [r7, #4]
	char *start_buf = buf;
 8002f04:	68fb      	ldr	r3, [r7, #12]
 8002f06:	617b      	str	r3, [r7, #20]
	while(*fmt)
 8002f08:	e07d      	b.n	8003006 <ts_formatstring+0x10e>
	{
		/* Character needs formating? */
		if (*fmt == '%')
 8002f0a:	68bb      	ldr	r3, [r7, #8]
 8002f0c:	781b      	ldrb	r3, [r3, #0]
 8002f0e:	2b25      	cmp	r3, #37	; 0x25
 8002f10:	d171      	bne.n	8002ff6 <ts_formatstring+0xfe>
		{
			switch (*(++fmt))
 8002f12:	68bb      	ldr	r3, [r7, #8]
 8002f14:	3301      	adds	r3, #1
 8002f16:	60bb      	str	r3, [r7, #8]
 8002f18:	68bb      	ldr	r3, [r7, #8]
 8002f1a:	781b      	ldrb	r3, [r3, #0]
 8002f1c:	2b64      	cmp	r3, #100	; 0x64
 8002f1e:	d01e      	beq.n	8002f5e <ts_formatstring+0x66>
 8002f20:	2b64      	cmp	r3, #100	; 0x64
 8002f22:	dc06      	bgt.n	8002f32 <ts_formatstring+0x3a>
 8002f24:	2b58      	cmp	r3, #88	; 0x58
 8002f26:	d050      	beq.n	8002fca <ts_formatstring+0xd2>
 8002f28:	2b63      	cmp	r3, #99	; 0x63
 8002f2a:	d00e      	beq.n	8002f4a <ts_formatstring+0x52>
 8002f2c:	2b25      	cmp	r3, #37	; 0x25
 8002f2e:	d058      	beq.n	8002fe2 <ts_formatstring+0xea>
 8002f30:	e05d      	b.n	8002fee <ts_formatstring+0xf6>
 8002f32:	2b73      	cmp	r3, #115	; 0x73
 8002f34:	d02b      	beq.n	8002f8e <ts_formatstring+0x96>
 8002f36:	2b73      	cmp	r3, #115	; 0x73
 8002f38:	dc02      	bgt.n	8002f40 <ts_formatstring+0x48>
 8002f3a:	2b69      	cmp	r3, #105	; 0x69
 8002f3c:	d00f      	beq.n	8002f5e <ts_formatstring+0x66>
 8002f3e:	e056      	b.n	8002fee <ts_formatstring+0xf6>
 8002f40:	2b75      	cmp	r3, #117	; 0x75
 8002f42:	d037      	beq.n	8002fb4 <ts_formatstring+0xbc>
 8002f44:	2b78      	cmp	r3, #120	; 0x78
 8002f46:	d040      	beq.n	8002fca <ts_formatstring+0xd2>
 8002f48:	e051      	b.n	8002fee <ts_formatstring+0xf6>
			{
			  case 'c':
				*buf++ = va_arg(va, int);
 8002f4a:	68fb      	ldr	r3, [r7, #12]
 8002f4c:	1c5a      	adds	r2, r3, #1
 8002f4e:	60fa      	str	r2, [r7, #12]
 8002f50:	687a      	ldr	r2, [r7, #4]
 8002f52:	1d11      	adds	r1, r2, #4
 8002f54:	6079      	str	r1, [r7, #4]
 8002f56:	6812      	ldr	r2, [r2, #0]
 8002f58:	b2d2      	uxtb	r2, r2
 8002f5a:	701a      	strb	r2, [r3, #0]
				break;
 8002f5c:	e047      	b.n	8002fee <ts_formatstring+0xf6>
			  case 'd':
			  case 'i':
				{
					signed int val = va_arg(va, signed int);
 8002f5e:	687b      	ldr	r3, [r7, #4]
 8002f60:	1d1a      	adds	r2, r3, #4
 8002f62:	607a      	str	r2, [r7, #4]
 8002f64:	681b      	ldr	r3, [r3, #0]
 8002f66:	61fb      	str	r3, [r7, #28]
					if (val < 0)
 8002f68:	69fb      	ldr	r3, [r7, #28]
 8002f6a:	2b00      	cmp	r3, #0
 8002f6c:	da07      	bge.n	8002f7e <ts_formatstring+0x86>
					{
						val *= -1;
 8002f6e:	69fb      	ldr	r3, [r7, #28]
 8002f70:	425b      	negs	r3, r3
 8002f72:	61fb      	str	r3, [r7, #28]
						*buf++ = '-';
 8002f74:	68fb      	ldr	r3, [r7, #12]
 8002f76:	1c5a      	adds	r2, r3, #1
 8002f78:	60fa      	str	r2, [r7, #12]
 8002f7a:	222d      	movs	r2, #45	; 0x2d
 8002f7c:	701a      	strb	r2, [r3, #0]
					}
					ts_itoa(&buf, val, 10);
 8002f7e:	69f9      	ldr	r1, [r7, #28]
 8002f80:	f107 030c 	add.w	r3, r7, #12
 8002f84:	220a      	movs	r2, #10
 8002f86:	4618      	mov	r0, r3
 8002f88:	f7ff ff6e 	bl	8002e68 <ts_itoa>
				}
				break;
 8002f8c:	e02f      	b.n	8002fee <ts_formatstring+0xf6>
			  case 's':
				{
					char * arg = va_arg(va, char *);
 8002f8e:	687b      	ldr	r3, [r7, #4]
 8002f90:	1d1a      	adds	r2, r3, #4
 8002f92:	607a      	str	r2, [r7, #4]
 8002f94:	681b      	ldr	r3, [r3, #0]
 8002f96:	61bb      	str	r3, [r7, #24]
					while (*arg)
 8002f98:	e007      	b.n	8002faa <ts_formatstring+0xb2>
					{
						*buf++ = *arg++;
 8002f9a:	68fb      	ldr	r3, [r7, #12]
 8002f9c:	1c5a      	adds	r2, r3, #1
 8002f9e:	60fa      	str	r2, [r7, #12]
 8002fa0:	69ba      	ldr	r2, [r7, #24]
 8002fa2:	1c51      	adds	r1, r2, #1
 8002fa4:	61b9      	str	r1, [r7, #24]
 8002fa6:	7812      	ldrb	r2, [r2, #0]
 8002fa8:	701a      	strb	r2, [r3, #0]
				}
				break;
			  case 's':
				{
					char * arg = va_arg(va, char *);
					while (*arg)
 8002faa:	69bb      	ldr	r3, [r7, #24]
 8002fac:	781b      	ldrb	r3, [r3, #0]
 8002fae:	2b00      	cmp	r3, #0
 8002fb0:	d1f3      	bne.n	8002f9a <ts_formatstring+0xa2>
					{
						*buf++ = *arg++;
					}
				}
				break;
 8002fb2:	e01c      	b.n	8002fee <ts_formatstring+0xf6>
			  case 'u':
					ts_itoa(&buf, va_arg(va, unsigned int), 10);
 8002fb4:	687b      	ldr	r3, [r7, #4]
 8002fb6:	1d1a      	adds	r2, r3, #4
 8002fb8:	607a      	str	r2, [r7, #4]
 8002fba:	6819      	ldr	r1, [r3, #0]
 8002fbc:	f107 030c 	add.w	r3, r7, #12
 8002fc0:	220a      	movs	r2, #10
 8002fc2:	4618      	mov	r0, r3
 8002fc4:	f7ff ff50 	bl	8002e68 <ts_itoa>
				break;
 8002fc8:	e011      	b.n	8002fee <ts_formatstring+0xf6>
			  case 'x':
			  case 'X':
					ts_itoa(&buf, va_arg(va, int), 16);
 8002fca:	687b      	ldr	r3, [r7, #4]
 8002fcc:	1d1a      	adds	r2, r3, #4
 8002fce:	607a      	str	r2, [r7, #4]
 8002fd0:	681b      	ldr	r3, [r3, #0]
 8002fd2:	4619      	mov	r1, r3
 8002fd4:	f107 030c 	add.w	r3, r7, #12
 8002fd8:	2210      	movs	r2, #16
 8002fda:	4618      	mov	r0, r3
 8002fdc:	f7ff ff44 	bl	8002e68 <ts_itoa>
				break;
 8002fe0:	e005      	b.n	8002fee <ts_formatstring+0xf6>
			  case '%':
				  *buf++ = '%';
 8002fe2:	68fb      	ldr	r3, [r7, #12]
 8002fe4:	1c5a      	adds	r2, r3, #1
 8002fe6:	60fa      	str	r2, [r7, #12]
 8002fe8:	2225      	movs	r2, #37	; 0x25
 8002fea:	701a      	strb	r2, [r3, #0]
				  break;
 8002fec:	bf00      	nop
			}
			fmt++;
 8002fee:	68bb      	ldr	r3, [r7, #8]
 8002ff0:	3301      	adds	r3, #1
 8002ff2:	60bb      	str	r3, [r7, #8]
 8002ff4:	e007      	b.n	8003006 <ts_formatstring+0x10e>
		}
		/* Else just copy */
		else
		{
			*buf++ = *fmt++;
 8002ff6:	68fb      	ldr	r3, [r7, #12]
 8002ff8:	1c5a      	adds	r2, r3, #1
 8002ffa:	60fa      	str	r2, [r7, #12]
 8002ffc:	68ba      	ldr	r2, [r7, #8]
 8002ffe:	1c51      	adds	r1, r2, #1
 8003000:	60b9      	str	r1, [r7, #8]
 8003002:	7812      	ldrb	r2, [r2, #0]
 8003004:	701a      	strb	r2, [r3, #0]
**---------------------------------------------------------------------------
*/
int ts_formatstring(char *buf, const char *fmt, va_list va)
{
	char *start_buf = buf;
	while(*fmt)
 8003006:	68bb      	ldr	r3, [r7, #8]
 8003008:	781b      	ldrb	r3, [r3, #0]
 800300a:	2b00      	cmp	r3, #0
 800300c:	f47f af7d 	bne.w	8002f0a <ts_formatstring+0x12>
		else
		{
			*buf++ = *fmt++;
		}
	}
	*buf = 0;
 8003010:	68fb      	ldr	r3, [r7, #12]
 8003012:	2200      	movs	r2, #0
 8003014:	701a      	strb	r2, [r3, #0]

	return (int)(buf - start_buf);
 8003016:	68fb      	ldr	r3, [r7, #12]
 8003018:	461a      	mov	r2, r3
 800301a:	697b      	ldr	r3, [r7, #20]
 800301c:	1ad3      	subs	r3, r2, r3
}
 800301e:	4618      	mov	r0, r3
 8003020:	3720      	adds	r7, #32
 8003022:	46bd      	mov	sp, r7
 8003024:	bd80      	pop	{r7, pc}
 8003026:	bf00      	nop

08003028 <siprintf>:
**            given character string according to the format parameter.
**  Returns:  Number of bytes written
**===========================================================================
*/
int siprintf(char *buf, const char *fmt, ...)
{
 8003028:	b40e      	push	{r1, r2, r3}
 800302a:	b580      	push	{r7, lr}
 800302c:	b085      	sub	sp, #20
 800302e:	af00      	add	r7, sp, #0
 8003030:	6078      	str	r0, [r7, #4]
	int length;
	va_list va;
	va_start(va, fmt);
 8003032:	f107 0320 	add.w	r3, r7, #32
 8003036:	60bb      	str	r3, [r7, #8]
	length = ts_formatstring(buf, fmt, va);
 8003038:	68ba      	ldr	r2, [r7, #8]
 800303a:	69f9      	ldr	r1, [r7, #28]
 800303c:	6878      	ldr	r0, [r7, #4]
 800303e:	f7ff ff5b 	bl	8002ef8 <ts_formatstring>
 8003042:	60f8      	str	r0, [r7, #12]
	va_end(va);
	return length;
 8003044:	68fb      	ldr	r3, [r7, #12]
}
 8003046:	4618      	mov	r0, r3
 8003048:	3714      	adds	r7, #20
 800304a:	46bd      	mov	sp, r7
 800304c:	e8bd 4080 	ldmia.w	sp!, {r7, lr}
 8003050:	b003      	add	sp, #12
 8003052:	4770      	bx	lr

08003054 <__libc_init_array>:
 8003054:	4b0e      	ldr	r3, [pc, #56]	; (8003090 <__libc_init_array+0x3c>)
 8003056:	b570      	push	{r4, r5, r6, lr}
 8003058:	461e      	mov	r6, r3
 800305a:	4c0e      	ldr	r4, [pc, #56]	; (8003094 <__libc_init_array+0x40>)
 800305c:	2500      	movs	r5, #0
 800305e:	1ae4      	subs	r4, r4, r3
 8003060:	10a4      	asrs	r4, r4, #2
 8003062:	42a5      	cmp	r5, r4
 8003064:	d004      	beq.n	8003070 <__libc_init_array+0x1c>
 8003066:	f856 3025 	ldr.w	r3, [r6, r5, lsl #2]
 800306a:	4798      	blx	r3
 800306c:	3501      	adds	r5, #1
 800306e:	e7f8      	b.n	8003062 <__libc_init_array+0xe>
 8003070:	f000 f816 	bl	80030a0 <_init>
 8003074:	4b08      	ldr	r3, [pc, #32]	; (8003098 <__libc_init_array+0x44>)
 8003076:	4c09      	ldr	r4, [pc, #36]	; (800309c <__libc_init_array+0x48>)
 8003078:	461e      	mov	r6, r3
 800307a:	1ae4      	subs	r4, r4, r3
 800307c:	10a4      	asrs	r4, r4, #2
 800307e:	2500      	movs	r5, #0
 8003080:	42a5      	cmp	r5, r4
 8003082:	d004      	beq.n	800308e <__libc_init_array+0x3a>
 8003084:	f856 3025 	ldr.w	r3, [r6, r5, lsl #2]
 8003088:	4798      	blx	r3
 800308a:	3501      	adds	r5, #1
 800308c:	e7f8      	b.n	8003080 <__libc_init_array+0x2c>
 800308e:	bd70      	pop	{r4, r5, r6, pc}
 8003090:	08003744 	.word	0x08003744
 8003094:	08003744 	.word	0x08003744
 8003098:	08003744 	.word	0x08003744
 800309c:	08003748 	.word	0x08003748

080030a0 <_init>:
 80030a0:	b5f8      	push	{r3, r4, r5, r6, r7, lr}
 80030a2:	bf00      	nop
 80030a4:	bcf8      	pop	{r3, r4, r5, r6, r7}
 80030a6:	bc08      	pop	{r3}
 80030a8:	469e      	mov	lr, r3
 80030aa:	4770      	bx	lr

080030ac <_fini>:
 80030ac:	b5f8      	push	{r3, r4, r5, r6, r7, lr}
 80030ae:	bf00      	nop
 80030b0:	bcf8      	pop	{r3, r4, r5, r6, r7}
 80030b2:	bc08      	pop	{r3}
 80030b4:	469e      	mov	lr, r3
 80030b6:	4770      	bx	lr
